(dp0
I0
(dp1
S'kube-scheduler-minikube'
p2
(S'10.0.2.15'
p3
S'+'
p4
S'kube-system'
p5
S'pod'
p6
tp7
sS'kube-proxy-k2jjj'
p8
(S'10.0.2.15'
p9
g4
S'kube-system'
p10
g6
tp11
sS'tiller-deploy'
p12
(S'10.109.137.180'
p13
g4
S'kube-system'
p14
S'svc'
p15
tp16
sS'wwwppp-wordpress-6fcdf9dbc6-ctzjj'
p17
(S'172.17.0.32'
p18
g4
S'default'
p19
g6
tp20
sS'wwwppp-wordpress-6fcdf9dbc6-zzxh7'
p21
(S'172.17.0.18'
p22
g4
S'default'
p23
g6
tp24
sS'wwwppp-wordpress-6fcdf9dbc6-8jg5l'
p25
(S'172.17.0.14'
p26
g4
S'default'
p27
g6
tp28
sS'wwwppp-wordpress-6fcdf9dbc6-9d74w'
p29
(S'172.17.0.29'
p30
g4
S'default'
p31
g6
tp32
sS'my-release-pxc'
p33
(S'10.102.151.222'
p34
g4
S'default'
p35
g15
tp36
sS'wwwppp-wordpress-6fcdf9dbc6-7bf5d'
p37
(S'172.17.0.24'
p38
g4
S'default'
p39
g6
tp40
sS'wwwppp-wordpress-6fcdf9dbc6-9k56n'
p41
(S'172.17.0.19'
p42
g4
S'default'
p43
g6
tp44
sS'tiller-deploy-78c6868dd6-84xws'
p45
(S'172.17.0.4'
p46
g4
S'kube-system'
p47
g6
tp48
sS'wwwppp-wordpress-6fcdf9dbc6-psbzl'
p49
(S'172.17.0.15'
p50
g4
S'default'
p51
g6
tp52
sS'wwwppp-wordpress-6fcdf9dbc6-c6q8w'
p53
(S'172.17.0.30'
p54
g4
S'default'
p55
g6
tp56
sS'wwwppp-wordpress-6fcdf9dbc6-wsj7s'
p57
(S'172.17.0.16'
p58
g4
S'default'
p59
g6
tp60
sS'wwwppp-wordpress-6fcdf9dbc6-6qknt'
p61
(S'172.17.0.20'
p62
g4
S'default'
p63
g6
tp64
sS'wwwppp-wordpress-6fcdf9dbc6-rgmbc'
p65
(S'172.17.0.25'
p66
g4
S'default'
p67
g6
tp68
sS'kube-dns'
p69
(S'10.96.0.10'
p70
g4
S'kube-system'
p71
g15
tp72
sS'kube-dns-86f4d74b45-kkzsh'
p73
(S'172.17.0.2'
p74
g4
S'kube-system'
p75
g6
tp76
sS'wwwppp-wordpress-6fcdf9dbc6-29jx4'
p77
(S'172.17.0.22'
p78
g4
S'default'
p79
g6
tp80
sS'wwwppp-wordpress-6fcdf9dbc6-gh5pd'
p81
(S'172.17.0.21'
p82
g4
S'default'
p83
g6
tp84
sS'wwwppp-wordpress-6fcdf9dbc6-tlskz'
p85
(S'172.17.0.13'
p86
g4
S'default'
p87
g6
tp88
sS'wwwppp-wordpress-6fcdf9dbc6-n6jhv'
p89
(S'172.17.0.28'
p90
g4
S'default'
p91
g6
tp92
sS'kube-addon-manager-minikube'
p93
(S'10.0.2.15'
p94
g4
S'kube-system'
p95
g6
tp96
sS'kubernetes'
p97
(S'10.96.0.1'
p98
g4
S'default'
p99
g15
tp100
sS'kubernetes-dashboard-5498ccf677-5vp9q'
p101
(S'172.17.0.3'
p102
g4
S'kube-system'
p103
g6
tp104
sS'my-release-pxc-1'
p105
(S'172.17.0.6'
p106
g4
S'default'
p107
g6
tp108
sS'my-release-pxc-0'
p109
(S'172.17.0.5'
p110
g4
S'default'
p111
g6
tp112
sS'my-release-pxc-3'
p113
(S'172.17.0.8'
p114
g4
S'default'
p115
g6
tp116
sS'my-release-pxc-2'
p117
(S'172.17.0.7'
p118
g4
S'default'
p119
g6
tp120
sS'my-release-pxc-5'
p121
(S'172.17.0.10'
p122
g4
S'default'
p123
g6
tp124
sS'my-release-pxc-4'
p125
(S'172.17.0.9'
p126
g4
S'default'
p127
g6
tp128
sS'my-release-pxc-6'
p129
(S'172.17.0.11'
p130
g4
S'default'
p131
g6
tp132
sS'wwwppp-wordpress'
p133
(S'10.96.32.179'
p134
g4
S'default'
p135
g15
tp136
sS'kubernetes-dashboard'
p137
(S'10.101.57.25'
p138
g4
S'kube-system'
p139
g15
tp140
sS'wwwppp-wordpress-6fcdf9dbc6-hwq8g'
p141
(S'172.17.0.17'
p142
g4
S'default'
p143
g6
tp144
sS'kube-apiserver-minikube'
p145
(S'10.0.2.15'
p146
g4
S'kube-system'
p147
g6
tp148
sS'wwwppp-wordpress-6fcdf9dbc6-nkcqq'
p149
(S'172.17.0.31'
p150
g4
S'default'
p151
g6
tp152
sS'storage-provisioner'
p153
(S'10.0.2.15'
p154
g4
S'kube-system'
p155
g6
tp156
sS'wwwppp-wordpress-6fcdf9dbc6-tb74v'
p157
(S'172.17.0.23'
p158
g4
S'default'
p159
g6
tp160
sS'kube-controller-manager-minikube'
p161
(S'10.0.2.15'
p162
g4
S'kube-system'
p163
g6
tp164
sS'wwwppp-wordpress-6fcdf9dbc6-qhf6k'
p165
(S'172.17.0.26'
p166
g4
S'default'
p167
g6
tp168
sS'wwwppp-wordpress-6fcdf9dbc6-klbx5'
p169
(S'172.17.0.27'
p170
g4
S'default'
p171
g6
tp172
sS'wwwppp-wordpress-6fcdf9dbc6-z7s6c'
p173
(S'172.17.0.12'
p174
g4
S'default'
p175
g6
tp176
sS'etcd-minikube'
p177
(S'10.0.2.15'
p178
g4
S'kube-system'
p179
g6
tp180
sS'my-release-pxc-repl'
p181
(S'None'
p182
g4
S'default'
p183
g15
tp184
ssI1
(dp185
sI2
(dp186
sI3
(dp187
sI4
(dp188
sI5
(dp189
sI6
(dp190
sI7
(dp191
sI8
(dp192
sI9
(dp193
sI10
(dp194
sI11
(dp195
sI12
(dp196
sI13
(dp197
sI14
(dp198
sI15
(dp199
sI16
(dp200
sI17
(dp201
sI18
(dp202
sI19
(dp203
sI20
(dp204
sI21
(dp205
sI22
(dp206
sI23
(dp207
sI24
(dp208
sI25
(dp209
sI26
(dp210
sI27
(dp211
sI28
(dp212
sI29
(dp213
sI30
(dp214
sI31
(dp215
sI32
(dp216
sI33
(dp217
sI34
(dp218
sI35
(dp219
sI36
(dp220
sI37
(dp221
sI38
(dp222
sI39
(dp223
sI40
(dp224
sI41
(dp225
sI42
(dp226
sI43
(dp227
sI44
(dp228
sI45
(dp229
sI46
(dp230
sI47
(dp231
sI48
(dp232
sI49
(dp233
sI50
(dp234
sI51
(dp235
sI52
(dp236
sI53
(dp237
sI54
(dp238
sI55
(dp239
sI56
(dp240
sI57
(dp241
sI58
(dp242
sI59
(dp243
sI60
(dp244
sI61
(dp245
sI62
(dp246
sI63
(dp247
sI64
(dp248
sI65
(dp249
sI66
(dp250
sI67
(dp251
sI68
(dp252
sI69
(dp253
sI70
(dp254
sI71
(dp255
sI72
(dp256
sI73
(dp257
sI74
(dp258
sI75
(dp259
sI76
(dp260
sI77
(dp261
sI78
(dp262
sI79
(dp263
sI80
(dp264
sI81
(dp265
sI82
(dp266
sI83
(dp267
sI84
(dp268
sI85
(dp269
sI86
(dp270
sI87
(dp271
sI88
(dp272
sI89
(dp273
sI90
(dp274
sI91
(dp275
sI92
(dp276
sI93
(dp277
sI94
(dp278
sI95
(dp279
sI96
(dp280
sI97
(dp281
sI98
(dp282
sI99
(dp283
sI100
(dp284
sI101
(dp285
sI102
(dp286
sI103
(dp287
sI104
(dp288
sI105
(dp289
sI106
(dp290
sI107
(dp291
sI108
(dp292
sI109
(dp293
sI110
(dp294
sI111
(dp295
sI112
(dp296
sI113
(dp297
sI114
(dp298
sI115
(dp299
sI116
(dp300
sI117
(dp301
sI118
(dp302
sI119
(dp303
sI120
(dp304
sI121
(dp305
sI122
(dp306
sI123
(dp307
sI124
(dp308
sI125
(dp309
sI126
(dp310
sI127
(dp311
sI128
(dp312
sI129
(dp313
sI130
(dp314
sI131
(dp315
sI132
(dp316
sI133
(dp317
sI134
(dp318
sI135
(dp319
sI136
(dp320
sI137
(dp321
sI138
(dp322
sI139
(dp323
sI140
(dp324
sI141
(dp325
sI142
(dp326
sI143
(dp327
sI144
(dp328
sI145
(dp329
sI146
(dp330
sI147
(dp331
sI148
(dp332
sI149
(dp333
sI150
(dp334
sI151
(dp335
sI152
(dp336
sI153
(dp337
sI154
(dp338
sI155
(dp339
sI156
(dp340
sI157
(dp341
sI158
(dp342
sI159
(dp343
sI160
(dp344
sI161
(dp345
sI162
(dp346
sI163
(dp347
sI164
(dp348
sI165
(dp349
sI166
(dp350
sI167
(dp351
sI168
(dp352
sI169
(dp353
sI170
(dp354
sI171
(dp355
sI172
(dp356
sI173
(dp357
sI174
(dp358
sI175
(dp359
sI176
(dp360
sI177
(dp361
sI178
(dp362
sI179
(dp363
sI180
(dp364
sI181
(dp365
sI182
(dp366
sI183
(dp367
sI184
(dp368
sI185
(dp369
sI186
(dp370
sI187
(dp371
sI188
(dp372
sI189
(dp373
sI190
(dp374
sI191
(dp375
sI192
(dp376
sI193
(dp377
sI194
(dp378
sI195
(dp379
sI196
(dp380
sI197
(dp381
sI198
(dp382
sI199
(dp383
sI200
(dp384
sI201
(dp385
sI202
(dp386
sI203
(dp387
sI204
(dp388
sI205
(dp389
sI206
(dp390
sI207
(dp391
sI208
(dp392
sI209
(dp393
sI210
(dp394
sI211
(dp395
sI212
(dp396
sI213
(dp397
sI214
(dp398
sI215
(dp399
sI216
(dp400
sI217
(dp401
sI218
(dp402
sI219
(dp403
sI220
(dp404
sI221
(dp405
sI222
(dp406
sI223
(dp407
sI224
(dp408
sI225
(dp409
sI226
(dp410
sI227
(dp411
sI228
(dp412
sI229
(dp413
sI230
(dp414
sI231
(dp415
sI232
(dp416
sI233
(dp417
sI234
(dp418
sI235
(dp419
sI236
(dp420
sI237
(dp421
sI238
(dp422
sI239
(dp423
sI240
(dp424
sI241
(dp425
sI242
(dp426
sI243
(dp427
sI244
(dp428
sI245
(dp429
sI246
(dp430
sI247
(dp431
sI248
(dp432
sI249
(dp433
sI250
(dp434
sI251
(dp435
sI252
(dp436
sI253
(dp437
sI254
(dp438
sI255
(dp439
sI256
(dp440
sI257
(dp441
sI258
(dp442
sI259
(dp443
sI260
(dp444
sI261
(dp445
sI262
(dp446
sI263
(dp447
sI264
(dp448
sI265
(dp449
sI266
(dp450
sI267
(dp451
sI268
(dp452
sI269
(dp453
sI270
(dp454
sI271
(dp455
sI272
(dp456
sI273
(dp457
sI274
(dp458
sI275
(dp459
sI276
(dp460
sI277
(dp461
sI278
(dp462
sI279
(dp463
sI280
(dp464
sI281
(dp465
sI282
(dp466
sI283
(dp467
sI284
(dp468
sI285
(dp469
sI286
(dp470
sI287
(dp471
sI288
(dp472
sI289
(dp473
sI290
(dp474
sI291
(dp475
sI292
(dp476
sI293
(dp477
sI294
(dp478
sI295
(dp479
sI296
(dp480
sI297
(dp481
sI298
(dp482
sI299
(dp483
sI300
(dp484
sI301
(dp485
sI302
(dp486
sI303
(dp487
sI304
(dp488
sI305
(dp489
sI306
(dp490
sI307
(dp491
sI308
(dp492
sI309
(dp493
sI310
(dp494
sI311
(dp495
sI312
(dp496
sI313
(dp497
sI314
(dp498
sI315
(dp499
sI316
(dp500
sI317
(dp501
sI318
(dp502
sI319
(dp503
sI320
(dp504
sI321
(dp505
sI322
(dp506
sI323
(dp507
sI324
(dp508
sI325
(dp509
sI326
(dp510
sI327
(dp511
sI328
(dp512
sI329
(dp513
sI330
(dp514
sI331
(dp515
sI332
(dp516
sI333
(dp517
sI334
(dp518
sI335
(dp519
sI336
(dp520
sI337
(dp521
sI338
(dp522
sI339
(dp523
sI340
(dp524
sI341
(dp525
sI342
(dp526
sI343
(dp527
sI344
(dp528
sI345
(dp529
sI346
(dp530
sI347
(dp531
sI348
(dp532
sI349
(dp533
sI350
(dp534
sI351
(dp535
sI352
(dp536
sI353
(dp537
sI354
(dp538
sI355
(dp539
sI356
(dp540
sI357
(dp541
sI358
(dp542
sI359
(dp543
sI360
(dp544
sI361
(dp545
sI362
(dp546
sI363
(dp547
sI364
(dp548
sI365
(dp549
sI366
(dp550
sI367
(dp551
sI368
(dp552
sI369
(dp553
sI370
(dp554
sI371
(dp555
sI372
(dp556
sI373
(dp557
sI374
(dp558
sI375
(dp559
sI376
(dp560
sI377
(dp561
sI378
(dp562
sI379
(dp563
sI380
(dp564
sI381
(dp565
sI382
(dp566
sI383
(dp567
sI384
(dp568
sI385
(dp569
sI386
(dp570
sI387
(dp571
sI388
(dp572
sI389
(dp573
sI390
(dp574
sI391
(dp575
sI392
(dp576
sI393
(dp577
sI394
(dp578
sI395
(dp579
sI396
(dp580
sI397
(dp581
sI398
(dp582
sI399
(dp583
sI400
(dp584
sI401
(dp585
sI402
(dp586
sI403
(dp587
sI404
(dp588
sI405
(dp589
sI406
(dp590
sI407
(dp591
sI408
(dp592
sI409
(dp593
sI410
(dp594
sI411
(dp595
sI412
(dp596
sI413
(dp597
sI414
(dp598
sI415
(dp599
sI416
(dp600
sI417
(dp601
sI418
(dp602
sI419
(dp603
sI420
(dp604
sI421
(dp605
sI422
(dp606
sI423
(dp607
sI424
(dp608
sI425
(dp609
sI426
(dp610
sI427
(dp611
sI428
(dp612
sI429
(dp613
sI430
(dp614
sI431
(dp615
sI432
(dp616
sI433
(dp617
sI434
(dp618
sI435
(dp619
sI436
(dp620
sI437
(dp621
sI438
(dp622
sI439
(dp623
sI440
(dp624
sI441
(dp625
sI442
(dp626
sI443
(dp627
sI444
(dp628
sI445
(dp629
sI446
(dp630
sI447
(dp631
sI448
(dp632
sI449
(dp633
sI450
(dp634
sI451
(dp635
sI452
(dp636
sI453
(dp637
sI454
(dp638
sI455
(dp639
sI456
(dp640
sI457
(dp641
sI458
(dp642
sI459
(dp643
sI460
(dp644
sI461
(dp645
sI462
(dp646
sI463
(dp647
sI464
(dp648
sI465
(dp649
sI466
(dp650
sI467
(dp651
sI468
(dp652
sI469
(dp653
sI470
(dp654
sI471
(dp655
sI472
(dp656
sI473
(dp657
sI474
(dp658
sI475
(dp659
sI476
(dp660
sI477
(dp661
sI478
(dp662
sI479
(dp663
sI480
(dp664
sI481
(dp665
sI482
(dp666
sI483
(dp667
sI484
(dp668
sI485
(dp669
sI486
(dp670
sI487
(dp671
sI488
(dp672
sI489
(dp673
sI490
(dp674
sI491
(dp675
sI492
(dp676
sI493
(dp677
sI494
(dp678
sI495
(dp679
sI496
(dp680
sI497
(dp681
sI498
(dp682
sI499
(dp683
sI500
(dp684
sI501
(dp685
sI502
(dp686
sI503
(dp687
sI504
(dp688
sI505
(dp689
sI506
(dp690
sI507
(dp691
sI508
(dp692
sI509
(dp693
sI510
(dp694
sI511
(dp695
sI512
(dp696
sI513
(dp697
sI514
(dp698
sI515
(dp699
sI516
(dp700
sI517
(dp701
sI518
(dp702
sI519
(dp703
sI520
(dp704
sI521
(dp705
sI522
(dp706
sI523
(dp707
sI524
(dp708
sI525
(dp709
sI526
(dp710
sI527
(dp711
sI528
(dp712
sI529
(dp713
sI530
(dp714
sI531
(dp715
sI532
(dp716
sI533
(dp717
sI534
(dp718
sI535
(dp719
sI536
(dp720
sI537
(dp721
sI538
(dp722
sI539
(dp723
sI540
(dp724
sI541
(dp725
sI542
(dp726
sI543
(dp727
sI544
(dp728
sI545
(dp729
sI546
(dp730
sI547
(dp731
sI548
(dp732
sI549
(dp733
sI550
(dp734
sI551
(dp735
sI552
(dp736
sI553
(dp737
sI554
(dp738
sI555
(dp739
sI556
(dp740
sI557
(dp741
sI558
(dp742
sI559
(dp743
sI560
(dp744
sI561
(dp745
sI562
(dp746
sI563
(dp747
sI564
(dp748
sI565
(dp749
sI566
(dp750
sI567
(dp751
sI568
(dp752
sI569
(dp753
sI570
(dp754
sI571
(dp755
sI572
(dp756
sI573
(dp757
sI574
(dp758
sI575
(dp759
sI576
(dp760
sI577
(dp761
sI578
(dp762
sI579
(dp763
sI580
(dp764
sI581
(dp765
sI582
(dp766
sI583
(dp767
sI584
(dp768
sI585
(dp769
sI586
(dp770
sI587
(dp771
sI588
(dp772
sI589
(dp773
sI590
(dp774
sI591
(dp775
sI592
(dp776
sI593
(dp777
sI594
(dp778
sI595
(dp779
sI596
(dp780
sI597
(dp781
sI598
(dp782
sI599
(dp783
sI600
(dp784
sI601
(dp785
sI602
(dp786
sI603
(dp787
sI604
(dp788
sI605
(dp789
sI606
(dp790
sI607
(dp791
sI608
(dp792
sI609
(dp793
sI610
(dp794
sI611
(dp795
sI612
(dp796
sI613
(dp797
sI614
(dp798
sI615
(dp799
sI616
(dp800
sI617
(dp801
sI618
(dp802
sI619
(dp803
sI620
(dp804
sI621
(dp805
sI622
(dp806
sI623
(dp807
sI624
(dp808
sI625
(dp809
sI626
(dp810
sI627
(dp811
sI628
(dp812
sI629
(dp813
sI630
(dp814
sI631
(dp815
sI632
(dp816
sI633
(dp817
sI634
(dp818
sI635
(dp819
sI636
(dp820
sI637
(dp821
sI638
(dp822
sI639
(dp823
sI640
(dp824
sI641
(dp825
sI642
(dp826
sI643
(dp827
sI644
(dp828
sI645
(dp829
sI646
(dp830
sI647
(dp831
sI648
(dp832
sI649
(dp833
sI650
(dp834
sI651
(dp835
sI652
(dp836
sI653
(dp837
sI654
(dp838
sI655
(dp839
sI656
(dp840
sI657
(dp841
sI658
(dp842
sI659
(dp843
sI660
(dp844
sI661
(dp845
sI662
(dp846
sI663
(dp847
sI664
(dp848
sI665
(dp849
sI666
(dp850
sI667
(dp851
sI668
(dp852
sI669
(dp853
sI670
(dp854
sI671
(dp855
sI672
(dp856
sI673
(dp857
sI674
(dp858
sI675
(dp859
sI676
(dp860
sI677
(dp861
sI678
(dp862
sI679
(dp863
sI680
(dp864
sI681
(dp865
sI682
(dp866
sI683
(dp867
sI684
(dp868
sI685
(dp869
sI686
(dp870
sI687
(dp871
sI688
(dp872
sI689
(dp873
sI690
(dp874
sI691
(dp875
sI692
(dp876
sI693
(dp877
sI694
(dp878
sI695
(dp879
sI696
(dp880
sI697
(dp881
sI698
(dp882
sI699
(dp883
sI700
(dp884
sI701
(dp885
sI702
(dp886
sI703
(dp887
sI704
(dp888
sI705
(dp889
sI706
(dp890
sI707
(dp891
sI708
(dp892
sI709
(dp893
sI710
(dp894
sI711
(dp895
sI712
(dp896
sI713
(dp897
sI714
(dp898
sI715
(dp899
sI716
(dp900
sI717
(dp901
sI718
(dp902
sI719
(dp903
sI720
(dp904
sI721
(dp905
sI722
(dp906
sI723
(dp907
sI724
(dp908
sI725
(dp909
sI726
(dp910
sI727
(dp911
sI728
(dp912
sI729
(dp913
sI730
(dp914
sI731
(dp915
sI732
(dp916
sI733
(dp917
sI734
(dp918
sI735
(dp919
sI736
(dp920
sI737
(dp921
sI738
(dp922
sI739
(dp923
sI740
(dp924
sI741
(dp925
sI742
(dp926
sI743
(dp927
sI744
(dp928
sI745
(dp929
sI746
(dp930
sI747
(dp931
sI748
(dp932
sI749
(dp933
sI750
(dp934
sI751
(dp935
sI752
(dp936
sI753
(dp937
sI754
(dp938
sI755
(dp939
sI756
(dp940
sI757
(dp941
sI758
(dp942
sI759
(dp943
sI760
(dp944
sI761
(dp945
sI762
(dp946
sI763
(dp947
sI764
(dp948
sI765
(dp949
sI766
(dp950
sI767
(dp951
sI768
(dp952
sI769
(dp953
sI770
(dp954
sI771
(dp955
sI772
(dp956
sI773
(dp957
sI774
(dp958
sI775
(dp959
sI776
(dp960
sI777
(dp961
sI778
(dp962
sI779
(dp963
sI780
(dp964
sI781
(dp965
sI782
(dp966
sI783
(dp967
sI784
(dp968
sI785
(dp969
sI786
(dp970
sI787
(dp971
sI788
(dp972
sI789
(dp973
sI790
(dp974
sI791
(dp975
sI792
(dp976
sI793
(dp977
sI794
(dp978
sI795
(dp979
sI796
(dp980
sI797
(dp981
sI798
(dp982
sI799
(dp983
sI800
(dp984
sI801
(dp985
sI802
(dp986
sI803
(dp987
sI804
(dp988
sI805
(dp989
sI806
(dp990
sI807
(dp991
sI808
(dp992
sI809
(dp993
sI810
(dp994
sI811
(dp995
sI812
(dp996
sI813
(dp997
sI814
(dp998
sI815
(dp999
sI816
(dp1000
sI817
(dp1001
sI818
(dp1002
sI819
(dp1003
sI820
(dp1004
sI821
(dp1005
sI822
(dp1006
sI823
(dp1007
sI824
(dp1008
sI825
(dp1009
sI826
(dp1010
sI827
(dp1011
sI828
(dp1012
sI829
(dp1013
sI830
(dp1014
sI831
(dp1015
sI832
(dp1016
sI833
(dp1017
sI834
(dp1018
sI835
(dp1019
sI836
(dp1020
sI837
(dp1021
sI838
(dp1022
sI839
(dp1023
sI840
(dp1024
sI841
(dp1025
sI842
(dp1026
sI843
(dp1027
sI844
(dp1028
sI845
(dp1029
sI846
(dp1030
sI847
(dp1031
sI848
(dp1032
sI849
(dp1033
sI850
(dp1034
sI851
(dp1035
sI852
(dp1036
sI853
(dp1037
sI854
(dp1038
sI855
(dp1039
sI856
(dp1040
sI857
(dp1041
sI858
(dp1042
sI859
(dp1043
sI860
(dp1044
sI861
(dp1045
sI862
(dp1046
sI863
(dp1047
sI864
(dp1048
sI865
(dp1049
sI866
(dp1050
sI867
(dp1051
sI868
(dp1052
sI869
(dp1053
sI870
(dp1054
sI871
(dp1055
sI872
(dp1056
sI873
(dp1057
sI874
(dp1058
sI875
(dp1059
sI876
(dp1060
sI877
(dp1061
sI878
(dp1062
sI879
(dp1063
sI880
(dp1064
sI881
(dp1065
sI882
(dp1066
sI883
(dp1067
sI884
(dp1068
sI885
(dp1069
sI886
(dp1070
sI887
(dp1071
sI888
(dp1072
sI889
(dp1073
sI890
(dp1074
sI891
(dp1075
sI892
(dp1076
sI893
(dp1077
sI894
(dp1078
sI895
(dp1079
sI896
(dp1080
sI897
(dp1081
sI898
(dp1082
sI899
(dp1083
sI900
(dp1084
sI901
(dp1085
sI902
(dp1086
sI903
(dp1087
sI904
(dp1088
sI905
(dp1089
sI906
(dp1090
sI907
(dp1091
sI908
(dp1092
sI909
(dp1093
sI910
(dp1094
sI911
(dp1095
sI912
(dp1096
sI913
(dp1097
sI914
(dp1098
sI915
(dp1099
sI916
(dp1100
sI917
(dp1101
sI918
(dp1102
sI919
(dp1103
sI920
(dp1104
sI921
(dp1105
sI922
(dp1106
sI923
(dp1107
sI924
(dp1108
sI925
(dp1109
sI926
(dp1110
sI927
(dp1111
sI928
(dp1112
sI929
(dp1113
sI930
(dp1114
sI931
(dp1115
sI932
(dp1116
sI933
(dp1117
sI934
(dp1118
sI935
(dp1119
sI936
(dp1120
sI937
(dp1121
sI938
(dp1122
sI939
(dp1123
sI940
(dp1124
sI941
(dp1125
sI942
(dp1126
sI943
(dp1127
sI944
(dp1128
sI945
(dp1129
sI946
(dp1130
sI947
(dp1131
sI948
(dp1132
sI949
(dp1133
sI950
(dp1134
sI951
(dp1135
sI952
(dp1136
sI953
(dp1137
sI954
(dp1138
sI955
(dp1139
sI956
(dp1140
sI957
(dp1141
sI958
(dp1142
sI959
(dp1143
sI960
(dp1144
sI961
(dp1145
sI962
(dp1146
sI963
(dp1147
sI964
(dp1148
sI965
(dp1149
sI966
(dp1150
sI967
(dp1151
sI968
(dp1152
sI969
(dp1153
sI970
(dp1154
sI971
(dp1155
sI972
(dp1156
sI973
(dp1157
sI974
(dp1158
sI975
(dp1159
sI976
(dp1160
sI977
(dp1161
sI978
(dp1162
sI979
(dp1163
sI980
(dp1164
sI981
(dp1165
sI982
(dp1166
sI983
(dp1167
sI984
(dp1168
sI985
(dp1169
sI986
(dp1170
sI987
(dp1171
sI988
(dp1172
sI989
(dp1173
sI990
(dp1174
sI991
(dp1175
sI992
(dp1176
sI993
(dp1177
sI994
(dp1178
sI995
(dp1179
sI996
(dp1180
sI997
(dp1181
sI998
(dp1182
sI999
(dp1183
sI1000
(dp1184
sI1001
(dp1185
sI1002
(dp1186
sI1003
(dp1187
sI1004
(dp1188
sI1005
(dp1189
sI1006
(dp1190
sI1007
(dp1191
sI1008
(dp1192
sI1009
(dp1193
sI1010
(dp1194
sI1011
(dp1195
sI1012
(dp1196
sI1013
(dp1197
sI1014
(dp1198
sI1015
(dp1199
sI1016
(dp1200
sI1017
(dp1201
sI1018
(dp1202
sI1019
(dp1203
sI1020
(dp1204
sI1021
(dp1205
sI1022
(dp1206
sI1023
(dp1207
sI1024
(dp1208
sI1025
(dp1209
sI1026
(dp1210
sI1027
(dp1211
sI1028
(dp1212
sI1029
(dp1213
sI1030
(dp1214
sI1031
(dp1215
sI1032
(dp1216
sI1033
(dp1217
sI1034
(dp1218
sI1035
(dp1219
sI1036
(dp1220
sI1037
(dp1221
sI1038
(dp1222
sI1039
(dp1223
sI1040
(dp1224
sI1041
(dp1225
sI1042
(dp1226
sI1043
(dp1227
sI1044
(dp1228
sI1045
(dp1229
sI1046
(dp1230
sI1047
(dp1231
sI1048
(dp1232
sI1049
(dp1233
sI1050
(dp1234
sI1051
(dp1235
sI1052
(dp1236
sI1053
(dp1237
sI1054
(dp1238
sI1055
(dp1239
sI1056
(dp1240
sI1057
(dp1241
sI1058
(dp1242
sI1059
(dp1243
sI1060
(dp1244
sI1061
(dp1245
sI1062
(dp1246
sI1063
(dp1247
sI1064
(dp1248
sI1065
(dp1249
sI1066
(dp1250
sI1067
(dp1251
sI1068
(dp1252
sI1069
(dp1253
sI1070
(dp1254
sI1071
(dp1255
sI1072
(dp1256
sI1073
(dp1257
sI1074
(dp1258
sI1075
(dp1259
sI1076
(dp1260
sI1077
(dp1261
sI1078
(dp1262
sI1079
(dp1263
sI1080
(dp1264
sI1081
(dp1265
sI1082
(dp1266
sI1083
(dp1267
sI1084
(dp1268
sI1085
(dp1269
sI1086
(dp1270
sI1087
(dp1271
sI1088
(dp1272
sI1089
(dp1273
sI1090
(dp1274
sI1091
(dp1275
sI1092
(dp1276
sI1093
(dp1277
sI1094
(dp1278
sI1095
(dp1279
sI1096
(dp1280
sI1097
(dp1281
sI1098
(dp1282
sI1099
(dp1283
sI1100
(dp1284
sI1101
(dp1285
sI1102
(dp1286
sI1103
(dp1287
sI1104
(dp1288
sI1105
(dp1289
sI1106
(dp1290
sI1107
(dp1291
sI1108
(dp1292
sI1109
(dp1293
sI1110
(dp1294
sI1111
(dp1295
sI1112
(dp1296
sI1113
(dp1297
sI1114
(dp1298
sI1115
(dp1299
sI1116
(dp1300
sI1117
(dp1301
sI1118
(dp1302
sI1119
(dp1303
sI1120
(dp1304
sI1121
(dp1305
sI1122
(dp1306
sI1123
(dp1307
sI1124
(dp1308
sI1125
(dp1309
sI1126
(dp1310
sI1127
(dp1311
sI1128
(dp1312
sI1129
(dp1313
sI1130
(dp1314
sI1131
(dp1315
sI1132
(dp1316
sI1133
(dp1317
sI1134
(dp1318
sI1135
(dp1319
sI1136
(dp1320
sI1137
(dp1321
sI1138
(dp1322
sI1139
(dp1323
sI1140
(dp1324
sI1141
(dp1325
sI1142
(dp1326
sI1143
(dp1327
sI1144
(dp1328
sI1145
(dp1329
sI1146
(dp1330
sI1147
(dp1331
sI1148
(dp1332
sI1149
(dp1333
sI1150
(dp1334
sI1151
(dp1335
sI1152
(dp1336
sI1153
(dp1337
sI1154
(dp1338
sI1155
(dp1339
sI1156
(dp1340
sI1157
(dp1341
sI1158
(dp1342
sI1159
(dp1343
sI1160
(dp1344
sI1161
(dp1345
sI1162
(dp1346
sI1163
(dp1347
sI1164
(dp1348
sI1165
(dp1349
sI1166
(dp1350
sI1167
(dp1351
sI1168
(dp1352
sI1169
(dp1353
sI1170
(dp1354
sI1171
(dp1355
sI1172
(dp1356
sI1173
(dp1357
sI1174
(dp1358
sI1175
(dp1359
sI1176
(dp1360
sI1177
(dp1361
sI1178
(dp1362
sI1179
(dp1363
sI1180
(dp1364
sI1181
(dp1365
sI1182
(dp1366
sI1183
(dp1367
sI1184
(dp1368
sI1185
(dp1369
sI1186
(dp1370
sI1187
(dp1371
sI1188
(dp1372
sI1189
(dp1373
sI1190
(dp1374
sI1191
(dp1375
sI1192
(dp1376
sI1193
(dp1377
sI1194
(dp1378
sI1195
(dp1379
sI1196
(dp1380
sI1197
(dp1381
sI1198
(dp1382
sI1199
(dp1383
sI1200
(dp1384
sI1201
(dp1385
sI1202
(dp1386
sI1203
(dp1387
sI1204
(dp1388
sI1205
(dp1389
sI1206
(dp1390
sI1207
(dp1391
sI1208
(dp1392
sI1209
(dp1393
sI1210
(dp1394
sI1211
(dp1395
sI1212
(dp1396
sI1213
(dp1397
sI1214
(dp1398
sI1215
(dp1399
sI1216
(dp1400
sI1217
(dp1401
sI1218
(dp1402
sI1219
(dp1403
sI1220
(dp1404
sI1221
(dp1405
sI1222
(dp1406
sI1223
(dp1407
sI1224
(dp1408
sI1225
(dp1409
sI1226
(dp1410
sI1227
(dp1411
sI1228
(dp1412
sI1229
(dp1413
sI1230
(dp1414
sI1231
(dp1415
sI1232
(dp1416
sI1233
(dp1417
sI1234
(dp1418
sI1235
(dp1419
sI1236
(dp1420
sI1237
(dp1421
sI1238
(dp1422
sI1239
(dp1423
sI1240
(dp1424
sI1241
(dp1425
sI1242
(dp1426
sI1243
(dp1427
sI1244
(dp1428
sI1245
(dp1429
sI1246
(dp1430
sI1247
(dp1431
sI1248
(dp1432
sI1249
(dp1433
sI1250
(dp1434
sI1251
(dp1435
sI1252
(dp1436
sI1253
(dp1437
sI1254
(dp1438
sI1255
(dp1439
sI1256
(dp1440
sI1257
(dp1441
sI1258
(dp1442
sI1259
(dp1443
sI1260
(dp1444
sI1261
(dp1445
sI1262
(dp1446
sI1263
(dp1447
sI1264
(dp1448
sI1265
(dp1449
sI1266
(dp1450
sI1267
(dp1451
sI1268
(dp1452
sI1269
(dp1453
sI1270
(dp1454
sI1271
(dp1455
sI1272
(dp1456
sI1273
(dp1457
sI1274
(dp1458
sI1275
(dp1459
sI1276
(dp1460
sI1277
(dp1461
sI1278
(dp1462
sI1279
(dp1463
sI1280
(dp1464
sI1281
(dp1465
sI1282
(dp1466
sI1283
(dp1467
sI1284
(dp1468
sI1285
(dp1469
sI1286
(dp1470
sI1287
(dp1471
sI1288
(dp1472
sI1289
(dp1473
sI1290
(dp1474
sI1291
(dp1475
sI1292
(dp1476
sI1293
(dp1477
sI1294
(dp1478
sI1295
(dp1479
sI1296
(dp1480
sI1297
(dp1481
sI1298
(dp1482
sI1299
(dp1483
sI1300
(dp1484
sI1301
(dp1485
sI1302
(dp1486
sI1303
(dp1487
sI1304
(dp1488
sI1305
(dp1489
sI1306
(dp1490
sI1307
(dp1491
sI1308
(dp1492
sI1309
(dp1493
sI1310
(dp1494
sI1311
(dp1495
sI1312
(dp1496
sI1313
(dp1497
sI1314
(dp1498
sI1315
(dp1499
sI1316
(dp1500
sI1317
(dp1501
sI1318
(dp1502
sI1319
(dp1503
sI1320
(dp1504
sI1321
(dp1505
sI1322
(dp1506
sI1323
(dp1507
sI1324
(dp1508
sI1325
(dp1509
sI1326
(dp1510
sI1327
(dp1511
sI1328
(dp1512
sI1329
(dp1513
sI1330
(dp1514
sI1331
(dp1515
sI1332
(dp1516
sI1333
(dp1517
sI1334
(dp1518
sI1335
(dp1519
sI1336
(dp1520
sI1337
(dp1521
sI1338
(dp1522
sI1339
(dp1523
sI1340
(dp1524
sI1341
(dp1525
sI1342
(dp1526
sI1343
(dp1527
sI1344
(dp1528
sI1345
(dp1529
sI1346
(dp1530
sI1347
(dp1531
sI1348
(dp1532
sI1349
(dp1533
sI1350
(dp1534
sI1351
(dp1535
sI1352
(dp1536
sI1353
(dp1537
sI1354
(dp1538
sI1355
(dp1539
sI1356
(dp1540
sI1357
(dp1541
sI1358
(dp1542
sI1359
(dp1543
sI1360
(dp1544
sI1361
(dp1545
sI1362
(dp1546
sI1363
(dp1547
sI1364
(dp1548
sI1365
(dp1549
sI1366
(dp1550
sI1367
(dp1551
sI1368
(dp1552
sI1369
(dp1553
sI1370
(dp1554
sI1371
(dp1555
sI1372
(dp1556
sI1373
(dp1557
sI1374
(dp1558
sI1375
(dp1559
sI1376
(dp1560
sI1377
(dp1561
sI1378
(dp1562
sI1379
(dp1563
sI1380
(dp1564
sI1381
(dp1565
sI1382
(dp1566
sI1383
(dp1567
sI1384
(dp1568
sI1385
(dp1569
sI1386
(dp1570
sI1387
(dp1571
sI1388
(dp1572
sI1389
(dp1573
sI1390
(dp1574
sI1391
(dp1575
sI1392
(dp1576
sI1393
(dp1577
sI1394
(dp1578
sI1395
(dp1579
sI1396
(dp1580
sI1397
(dp1581
sI1398
(dp1582
sI1399
(dp1583
sI1400
(dp1584
sI1401
(dp1585
sI1402
(dp1586
sI1403
(dp1587
sI1404
(dp1588
sI1405
(dp1589
sI1406
(dp1590
sI1407
(dp1591
sI1408
(dp1592
sI1409
(dp1593
sI1410
(dp1594
sI1411
(dp1595
sI1412
(dp1596
sI1413
(dp1597
sI1414
(dp1598
sI1415
(dp1599
sI1416
(dp1600
sI1417
(dp1601
sI1418
(dp1602
sI1419
(dp1603
sI1420
(dp1604
sI1421
(dp1605
sI1422
(dp1606
sI1423
(dp1607
sI1424
(dp1608
sI1425
(dp1609
sI1426
(dp1610
sI1427
(dp1611
sI1428
(dp1612
sI1429
(dp1613
sI1430
(dp1614
sI1431
(dp1615
sI1432
(dp1616
sI1433
(dp1617
sI1434
(dp1618
sI1435
(dp1619
sI1436
(dp1620
sI1437
(dp1621
sI1438
(dp1622
sI1439
(dp1623
sI1440
(dp1624
sI1441
(dp1625
sI1442
(dp1626
sI1443
(dp1627
sI1444
(dp1628
sI1445
(dp1629
sI1446
(dp1630
sI1447
(dp1631
sI1448
(dp1632
sI1449
(dp1633
sI1450
(dp1634
sI1451
(dp1635
sI1452
(dp1636
sI1453
(dp1637
sI1454
(dp1638
sI1455
(dp1639
sI1456
(dp1640
sI1457
(dp1641
sI1458
(dp1642
sI1459
(dp1643
sI1460
(dp1644
sI1461
(dp1645
sI1462
(dp1646
sI1463
(dp1647
sI1464
(dp1648
sI1465
(dp1649
sI1466
(dp1650
sI1467
(dp1651
sI1468
(dp1652
sI1469
(dp1653
sI1470
(dp1654
sI1471
(dp1655
sI1472
(dp1656
sI1473
(dp1657
sI1474
(dp1658
sI1475
(dp1659
sI1476
(dp1660
sI1477
(dp1661
sI1478
(dp1662
sI1479
(dp1663
sI1480
(dp1664
sI1481
(dp1665
sI1482
(dp1666
sI1483
(dp1667
sI1484
(dp1668
sI1485
(dp1669
sI1486
(dp1670
sI1487
(dp1671
sI1488
(dp1672
sI1489
(dp1673
sI1490
(dp1674
sI1491
(dp1675
sI1492
(dp1676
sI1493
(dp1677
sI1494
(dp1678
sI1495
(dp1679
sI1496
(dp1680
sI1497
(dp1681
sI1498
(dp1682
sI1499
(dp1683
sI1500
(dp1684
sI1501
(dp1685
sI1502
(dp1686
sI1503
(dp1687
sI1504
(dp1688
sI1505
(dp1689
sI1506
(dp1690
sI1507
(dp1691
sI1508
(dp1692
sI1509
(dp1693
sI1510
(dp1694
sI1511
(dp1695
sI1512
(dp1696
sI1513
(dp1697
sI1514
(dp1698
sI1515
(dp1699
sI1516
(dp1700
sI1517
(dp1701
sI1518
(dp1702
sI1519
(dp1703
sI1520
(dp1704
sI1521
(dp1705
sI1522
(dp1706
sI1523
(dp1707
sI1524
(dp1708
sI1525
(dp1709
sI1526
(dp1710
sI1527
(dp1711
sI1528
(dp1712
sI1529
(dp1713
sI1530
(dp1714
sI1531
(dp1715
sI1532
(dp1716
sI1533
(dp1717
sI1534
(dp1718
sI1535
(dp1719
sI1536
(dp1720
sI1537
(dp1721
sI1538
(dp1722
sI1539
(dp1723
sI1540
(dp1724
sI1541
(dp1725
sI1542
(dp1726
sI1543
(dp1727
sI1544
(dp1728
sI1545
(dp1729
sI1546
(dp1730
sI1547
(dp1731
sI1548
(dp1732
sI1549
(dp1733
sI1550
(dp1734
sI1551
(dp1735
sI1552
(dp1736
sI1553
(dp1737
sI1554
(dp1738
sI1555
(dp1739
sI1556
(dp1740
sI1557
(dp1741
sI1558
(dp1742
sI1559
(dp1743
sI1560
(dp1744
sI1561
(dp1745
sI1562
(dp1746
sI1563
(dp1747
sI1564
(dp1748
sI1565
(dp1749
sI1566
(dp1750
sI1567
(dp1751
sI1568
(dp1752
sI1569
(dp1753
sI1570
(dp1754
sI1571
(dp1755
sI1572
(dp1756
sI1573
(dp1757
sI1574
(dp1758
sI1575
(dp1759
sI1576
(dp1760
sI1577
(dp1761
sI1578
(dp1762
sI1579
(dp1763
sI1580
(dp1764
sI1581
(dp1765
sI1582
(dp1766
sI1583
(dp1767
sI1584
(dp1768
sI1585
(dp1769
sI1586
(dp1770
sI1587
(dp1771
sI1588
(dp1772
sI1589
(dp1773
sI1590
(dp1774
sI1591
(dp1775
sI1592
(dp1776
sI1593
(dp1777
sI1594
(dp1778
sI1595
(dp1779
sI1596
(dp1780
sI1597
(dp1781
sI1598
(dp1782
sI1599
(dp1783
sI1600
(dp1784
sI1601
(dp1785
sI1602
(dp1786
sI1603
(dp1787
sI1604
(dp1788
sI1605
(dp1789
sI1606
(dp1790
sI1607
(dp1791
sI1608
(dp1792
sI1609
(dp1793
sI1610
(dp1794
sI1611
(dp1795
sI1612
(dp1796
sI1613
(dp1797
sI1614
(dp1798
sI1615
(dp1799
sI1616
(dp1800
sI1617
(dp1801
sI1618
(dp1802
sI1619
(dp1803
sI1620
(dp1804
sI1621
(dp1805
sI1622
(dp1806
sI1623
(dp1807
sI1624
(dp1808
sI1625
(dp1809
sI1626
(dp1810
sI1627
(dp1811
sI1628
(dp1812
sI1629
(dp1813
sI1630
(dp1814
sI1631
(dp1815
sI1632
(dp1816
sI1633
(dp1817
sI1634
(dp1818
sI1635
(dp1819
sI1636
(dp1820
sI1637
(dp1821
sI1638
(dp1822
sI1639
(dp1823
sI1640
(dp1824
sI1641
(dp1825
sI1642
(dp1826
sI1643
(dp1827
sI1644
(dp1828
sI1645
(dp1829
sI1646
(dp1830
sI1647
(dp1831
sI1648
(dp1832
sI1649
(dp1833
sI1650
(dp1834
sI1651
(dp1835
sI1652
(dp1836
sI1653
(dp1837
sI1654
(dp1838
sI1655
(dp1839
sI1656
(dp1840
sI1657
(dp1841
sI1658
(dp1842
sI1659
(dp1843
sI1660
(dp1844
sI1661
(dp1845
sI1662
(dp1846
sI1663
(dp1847
sI1664
(dp1848
sI1665
(dp1849
sI1666
(dp1850
sI1667
(dp1851
sI1668
(dp1852
sI1669
(dp1853
sI1670
(dp1854
sI1671
(dp1855
sI1672
(dp1856
sI1673
(dp1857
sI1674
(dp1858
sI1675
(dp1859
sI1676
(dp1860
sI1677
(dp1861
sI1678
(dp1862
sI1679
(dp1863
sI1680
(dp1864
sI1681
(dp1865
sI1682
(dp1866
sI1683
(dp1867
sI1684
(dp1868
sI1685
(dp1869
sI1686
(dp1870
sI1687
(dp1871
sI1688
(dp1872
sI1689
(dp1873
sI1690
(dp1874
sI1691
(dp1875
sI1692
(dp1876
sI1693
(dp1877
sI1694
(dp1878
sI1695
(dp1879
sI1696
(dp1880
sI1697
(dp1881
sI1698
(dp1882
sI1699
(dp1883
sI1700
(dp1884
sI1701
(dp1885
sI1702
(dp1886
sI1703
(dp1887
sI1704
(dp1888
sI1705
(dp1889
sI1706
(dp1890
sI1707
(dp1891
sI1708
(dp1892
sI1709
(dp1893
sI1710
(dp1894
sI1711
(dp1895
sI1712
(dp1896
sI1713
(dp1897
sI1714
(dp1898
sI1715
(dp1899
sI1716
(dp1900
sI1717
(dp1901
sI1718
(dp1902
sI1719
(dp1903
sI1720
(dp1904
sI1721
(dp1905
sI1722
(dp1906
sI1723
(dp1907
sI1724
(dp1908
sI1725
(dp1909
sI1726
(dp1910
sI1727
(dp1911
sI1728
(dp1912
sI1729
(dp1913
sI1730
(dp1914
sI1731
(dp1915
sI1732
(dp1916
sI1733
(dp1917
sI1734
(dp1918
sI1735
(dp1919
sI1736
(dp1920
sI1737
(dp1921
sI1738
(dp1922
sI1739
(dp1923
sI1740
(dp1924
sI1741
(dp1925
sI1742
(dp1926
sI1743
(dp1927
sI1744
(dp1928
sI1745
(dp1929
sI1746
(dp1930
sI1747
(dp1931
sI1748
(dp1932
sI1749
(dp1933
sI1750
(dp1934
sI1751
(dp1935
sI1752
(dp1936
sI1753
(dp1937
sI1754
(dp1938
sI1755
(dp1939
sI1756
(dp1940
sI1757
(dp1941
sI1758
(dp1942
sI1759
(dp1943
sI1760
(dp1944
sI1761
(dp1945
sI1762
(dp1946
sI1763
(dp1947
sI1764
(dp1948
sI1765
(dp1949
sI1766
(dp1950
sI1767
(dp1951
sI1768
(dp1952
sI1769
(dp1953
sI1770
(dp1954
sI1771
(dp1955
sI1772
(dp1956
sI1773
(dp1957
sI1774
(dp1958
sI1775
(dp1959
sI1776
(dp1960
sI1777
(dp1961
sI1778
(dp1962
sI1779
(dp1963
sI1780
(dp1964
sI1781
(dp1965
sI1782
(dp1966
sI1783
(dp1967
sI1784
(dp1968
sI1785
(dp1969
sI1786
(dp1970
sI1787
(dp1971
sI1788
(dp1972
sI1789
(dp1973
sI1790
(dp1974
sI1791
(dp1975
sI1792
(dp1976
sI1793
(dp1977
sI1794
(dp1978
sI1795
(dp1979
sI1796
(dp1980
sI1797
(dp1981
sI1798
(dp1982
sI1799
(dp1983
sI1800
(dp1984
sI1801
(dp1985
sI1802
(dp1986
sI1803
(dp1987
sI1804
(dp1988
sI1805
(dp1989
sI1806
(dp1990
sI1807
(dp1991
sI1808
(dp1992
sI1809
(dp1993
sI1810
(dp1994
sI1811
(dp1995
sI1812
(dp1996
sI1813
(dp1997
sI1814
(dp1998
sI1815
(dp1999
sI1816
(dp2000
sI1817
(dp2001
sI1818
(dp2002
sI1819
(dp2003
sI1820
(dp2004
sI1821
(dp2005
sI1822
(dp2006
sI1823
(dp2007
sI1824
(dp2008
sI1825
(dp2009
sI1826
(dp2010
sI1827
(dp2011
sI1828
(dp2012
sI1829
(dp2013
sI1830
(dp2014
sI1831
(dp2015
sI1832
(dp2016
sI1833
(dp2017
sI1834
(dp2018
sI1835
(dp2019
sI1836
(dp2020
sI1837
(dp2021
sI1838
(dp2022
sI1839
(dp2023
sI1840
(dp2024
sI1841
(dp2025
sI1842
(dp2026
sI1843
(dp2027
sI1844
(dp2028
sI1845
(dp2029
sI1846
(dp2030
sI1847
(dp2031
sI1848
(dp2032
sI1849
(dp2033
sI1850
(dp2034
sI1851
(dp2035
sI1852
(dp2036
sI1853
(dp2037
sI1854
(dp2038
sI1855
(dp2039
sI1856
(dp2040
sI1857
(dp2041
sI1858
(dp2042
sI1859
(dp2043
sI1860
(dp2044
sI1861
(dp2045
sI1862
(dp2046
sI1863
(dp2047
sI1864
(dp2048
sI1865
(dp2049
sI1866
(dp2050
sI1867
(dp2051
sI1868
(dp2052
sI1869
(dp2053
sI1870
(dp2054
sI1871
(dp2055
sI1872
(dp2056
sI1873
(dp2057
sI1874
(dp2058
sI1875
(dp2059
sI1876
(dp2060
sI1877
(dp2061
sI1878
(dp2062
sI1879
(dp2063
sI1880
(dp2064
sI1881
(dp2065
sI1882
(dp2066
sI1883
(dp2067
sI1884
(dp2068
sI1885
(dp2069
sI1886
(dp2070
sI1887
(dp2071
sI1888
(dp2072
sI1889
(dp2073
sI1890
(dp2074
sI1891
(dp2075
sI1892
(dp2076
sI1893
(dp2077
sI1894
(dp2078
sI1895
(dp2079
sI1896
(dp2080
sI1897
(dp2081
sI1898
(dp2082
sI1899
(dp2083
sI1900
(dp2084
sI1901
(dp2085
sI1902
(dp2086
sI1903
(dp2087
sI1904
(dp2088
sI1905
(dp2089
sI1906
(dp2090
sI1907
(dp2091
sI1908
(dp2092
sI1909
(dp2093
sI1910
(dp2094
sI1911
(dp2095
sI1912
(dp2096
sI1913
(dp2097
sI1914
(dp2098
sI1915
(dp2099
sI1916
(dp2100
sI1917
(dp2101
sI1918
(dp2102
sI1919
(dp2103
sI1920
(dp2104
sI1921
(dp2105
sI1922
(dp2106
sI1923
(dp2107
sI1924
(dp2108
sI1925
(dp2109
sI1926
(dp2110
sI1927
(dp2111
sI1928
(dp2112
sI1929
(dp2113
sI1930
(dp2114
sI1931
(dp2115
sI1932
(dp2116
sI1933
(dp2117
sI1934
(dp2118
sI1935
(dp2119
sI1936
(dp2120
sI1937
(dp2121
sI1938
(dp2122
sI1939
(dp2123
sI1940
(dp2124
sI1941
(dp2125
sI1942
(dp2126
sI1943
(dp2127
sI1944
(dp2128
sI1945
(dp2129
sI1946
(dp2130
sI1947
(dp2131
sI1948
(dp2132
sI1949
(dp2133
sI1950
(dp2134
sI1951
(dp2135
sI1952
(dp2136
sI1953
(dp2137
sI1954
(dp2138
sI1955
(dp2139
sI1956
(dp2140
sI1957
(dp2141
sI1958
(dp2142
sI1959
(dp2143
sI1960
(dp2144
sI1961
(dp2145
sI1962
(dp2146
sI1963
(dp2147
sI1964
(dp2148
sI1965
(dp2149
sI1966
(dp2150
sI1967
(dp2151
sI1968
(dp2152
sI1969
(dp2153
sI1970
(dp2154
sI1971
(dp2155
sI1972
(dp2156
sI1973
(dp2157
sI1974
(dp2158
sI1975
(dp2159
sI1976
(dp2160
sI1977
(dp2161
sI1978
(dp2162
sI1979
(dp2163
sI1980
(dp2164
sI1981
(dp2165
sI1982
(dp2166
sI1983
(dp2167
sI1984
(dp2168
sI1985
(dp2169
sI1986
(dp2170
sI1987
(dp2171
sI1988
(dp2172
sI1989
(dp2173
sI1990
(dp2174
sI1991
(dp2175
sI1992
(dp2176
sI1993
(dp2177
sI1994
(dp2178
sI1995
(dp2179
sI1996
(dp2180
sI1997
(dp2181
sI1998
(dp2182
sI1999
(dp2183
sI2000
(dp2184
sI2001
(dp2185
sI2002
(dp2186
sI2003
(dp2187
sI2004
(dp2188
sI2005
(dp2189
sI2006
(dp2190
sI2007
(dp2191
sI2008
(dp2192
sI2009
(dp2193
sI2010
(dp2194
sI2011
(dp2195
sI2012
(dp2196
sI2013
(dp2197
sI2014
(dp2198
sI2015
(dp2199
sI2016
(dp2200
sI2017
(dp2201
sI2018
(dp2202
sI2019
(dp2203
sI2020
(dp2204
sI2021
(dp2205
sI2022
(dp2206
sI2023
(dp2207
sI2024
(dp2208
sI2025
(dp2209
sI2026
(dp2210
sI2027
(dp2211
sI2028
(dp2212
sI2029
(dp2213
sI2030
(dp2214
sI2031
(dp2215
sI2032
(dp2216
sI2033
(dp2217
sI2034
(dp2218
sI2035
(dp2219
sI2036
(dp2220
sI2037
(dp2221
sI2038
(dp2222
sI2039
(dp2223
sI2040
(dp2224
sI2041
(dp2225
sI2042
(dp2226
sI2043
(dp2227
sI2044
(dp2228
sI2045
(dp2229
sI2046
(dp2230
sI2047
(dp2231
sI2048
(dp2232
sI2049
(dp2233
sI2050
(dp2234
sI2051
(dp2235
sI2052
(dp2236
sI2053
(dp2237
sI2054
(dp2238
sI2055
(dp2239
sI2056
(dp2240
sI2057
(dp2241
sI2058
(dp2242
sI2059
(dp2243
sI2060
(dp2244
sI2061
(dp2245
sI2062
(dp2246
sI2063
(dp2247
sI2064
(dp2248
sI2065
(dp2249
sI2066
(dp2250
sI2067
(dp2251
sI2068
(dp2252
sI2069
(dp2253
sI2070
(dp2254
sI2071
(dp2255
sI2072
(dp2256
sI2073
(dp2257
sI2074
(dp2258
sI2075
(dp2259
sI2076
(dp2260
sI2077
(dp2261
sI2078
(dp2262
sI2079
(dp2263
sI2080
(dp2264
sI2081
(dp2265
sI2082
(dp2266
sI2083
(dp2267
sI2084
(dp2268
sI2085
(dp2269
sI2086
(dp2270
sI2087
(dp2271
sI2088
(dp2272
sI2089
(dp2273
sI2090
(dp2274
sI2091
(dp2275
sI2092
(dp2276
sI2093
(dp2277
sI2094
(dp2278
sI2095
(dp2279
sI2096
(dp2280
sI2097
(dp2281
sI2098
(dp2282
sI2099
(dp2283
sI2100
(dp2284
sI2101
(dp2285
sI2102
(dp2286
sI2103
(dp2287
sI2104
(dp2288
sI2105
(dp2289
sI2106
(dp2290
sI2107
(dp2291
sI2108
(dp2292
sI2109
(dp2293
sI2110
(dp2294
sI2111
(dp2295
sI2112
(dp2296
sI2113
(dp2297
sI2114
(dp2298
sI2115
(dp2299
sI2116
(dp2300
sI2117
(dp2301
sI2118
(dp2302
sI2119
(dp2303
sI2120
(dp2304
sI2121
(dp2305
sI2122
(dp2306
sI2123
(dp2307
sI2124
(dp2308
sI2125
(dp2309
sI2126
(dp2310
sI2127
(dp2311
sI2128
(dp2312
sI2129
(dp2313
sI2130
(dp2314
sI2131
(dp2315
sI2132
(dp2316
sI2133
(dp2317
sI2134
(dp2318
sI2135
(dp2319
sI2136
(dp2320
sI2137
(dp2321
sI2138
(dp2322
sI2139
(dp2323
sI2140
(dp2324
sI2141
(dp2325
sI2142
(dp2326
sI2143
(dp2327
sI2144
(dp2328
sI2145
(dp2329
sI2146
(dp2330
sI2147
(dp2331
sI2148
(dp2332
sI2149
(dp2333
sI2150
(dp2334
sI2151
(dp2335
sI2152
(dp2336
sI2153
(dp2337
sI2154
(dp2338
sI2155
(dp2339
sI2156
(dp2340
sI2157
(dp2341
sI2158
(dp2342
sI2159
(dp2343
sI2160
(dp2344
sI2161
(dp2345
sI2162
(dp2346
sI2163
(dp2347
sI2164
(dp2348
sI2165
(dp2349
sI2166
(dp2350
sI2167
(dp2351
sI2168
(dp2352
sI2169
(dp2353
sI2170
(dp2354
sI2171
(dp2355
sI2172
(dp2356
sI2173
(dp2357
sI2174
(dp2358
sI2175
(dp2359
sI2176
(dp2360
sI2177
(dp2361
sI2178
(dp2362
sI2179
(dp2363
sI2180
(dp2364
sI2181
(dp2365
sI2182
(dp2366
sI2183
(dp2367
sI2184
(dp2368
sI2185
(dp2369
sI2186
(dp2370
sI2187
(dp2371
sI2188
(dp2372
sI2189
(dp2373
sI2190
(dp2374
sI2191
(dp2375
sI2192
(dp2376
sI2193
(dp2377
sI2194
(dp2378
sI2195
(dp2379
sI2196
(dp2380
sI2197
(dp2381
sI2198
(dp2382
sI2199
(dp2383
sI2200
(dp2384
sI2201
(dp2385
sI2202
(dp2386
sI2203
(dp2387
sI2204
(dp2388
sI2205
(dp2389
sI2206
(dp2390
sI2207
(dp2391
sI2208
(dp2392
sI2209
(dp2393
sI2210
(dp2394
sI2211
(dp2395
sI2212
(dp2396
sI2213
(dp2397
sI2214
(dp2398
sI2215
(dp2399
sI2216
(dp2400
sI2217
(dp2401
sI2218
(dp2402
sI2219
(dp2403
sI2220
(dp2404
sI2221
(dp2405
sI2222
(dp2406
sI2223
(dp2407
sI2224
(dp2408
sI2225
(dp2409
sI2226
(dp2410
sI2227
(dp2411
sI2228
(dp2412
sI2229
(dp2413
sI2230
(dp2414
sI2231
(dp2415
sI2232
(dp2416
sI2233
(dp2417
sI2234
(dp2418
sI2235
(dp2419
sI2236
(dp2420
sI2237
(dp2421
sI2238
(dp2422
sI2239
(dp2423
sI2240
(dp2424
sI2241
(dp2425
sI2242
(dp2426
sI2243
(dp2427
sI2244
(dp2428
sI2245
(dp2429
sI2246
(dp2430
sI2247
(dp2431
sI2248
(dp2432
sI2249
(dp2433
sI2250
(dp2434
sI2251
(dp2435
sI2252
(dp2436
sI2253
(dp2437
sI2254
(dp2438
sI2255
(dp2439
sI2256
(dp2440
sI2257
(dp2441
sI2258
(dp2442
sI2259
(dp2443
sI2260
(dp2444
sI2261
(dp2445
sI2262
(dp2446
sI2263
(dp2447
sI2264
(dp2448
sI2265
(dp2449
sI2266
(dp2450
sI2267
(dp2451
sI2268
(dp2452
sI2269
(dp2453
sI2270
(dp2454
sI2271
(dp2455
sI2272
(dp2456
sI2273
(dp2457
sI2274
(dp2458
sI2275
(dp2459
sI2276
(dp2460
sI2277
(dp2461
sI2278
(dp2462
sI2279
(dp2463
sI2280
(dp2464
sI2281
(dp2465
sI2282
(dp2466
sI2283
(dp2467
sI2284
(dp2468
sI2285
(dp2469
sI2286
(dp2470
sI2287
(dp2471
sI2288
(dp2472
sI2289
(dp2473
sI2290
(dp2474
sI2291
(dp2475
sI2292
(dp2476
sI2293
(dp2477
sI2294
(dp2478
sI2295
(dp2479
sI2296
(dp2480
sI2297
(dp2481
sI2298
(dp2482
sI2299
(dp2483
sI2300
(dp2484
sI2301
(dp2485
sI2302
(dp2486
sI2303
(dp2487
sI2304
(dp2488
sI2305
(dp2489
sI2306
(dp2490
sI2307
(dp2491
sI2308
(dp2492
sI2309
(dp2493
sI2310
(dp2494
sI2311
(dp2495
sI2312
(dp2496
sI2313
(dp2497
sI2314
(dp2498
sI2315
(dp2499
sI2316
(dp2500
sI2317
(dp2501
sI2318
(dp2502
sI2319
(dp2503
sI2320
(dp2504
sI2321
(dp2505
sI2322
(dp2506
sI2323
(dp2507
sI2324
(dp2508
sI2325
(dp2509
sI2326
(dp2510
sI2327
(dp2511
sI2328
(dp2512
sI2329
(dp2513
sI2330
(dp2514
sI2331
(dp2515
sI2332
(dp2516
sI2333
(dp2517
sI2334
(dp2518
sI2335
(dp2519
sI2336
(dp2520
sI2337
(dp2521
sI2338
(dp2522
sI2339
(dp2523
sI2340
(dp2524
sI2341
(dp2525
sI2342
(dp2526
sI2343
(dp2527
sI2344
(dp2528
sI2345
(dp2529
sI2346
(dp2530
sI2347
(dp2531
sI2348
(dp2532
sI2349
(dp2533
sI2350
(dp2534
sI2351
(dp2535
sI2352
(dp2536
sI2353
(dp2537
sI2354
(dp2538
sI2355
(dp2539
sI2356
(dp2540
sI2357
(dp2541
sI2358
(dp2542
sI2359
(dp2543
sI2360
(dp2544
sI2361
(dp2545
sI2362
(dp2546
sI2363
(dp2547
sI2364
(dp2548
sI2365
(dp2549
sI2366
(dp2550
sI2367
(dp2551
sI2368
(dp2552
sI2369
(dp2553
sI2370
(dp2554
sI2371
(dp2555
sI2372
(dp2556
sI2373
(dp2557
sI2374
(dp2558
sI2375
(dp2559
sI2376
(dp2560
sI2377
(dp2561
sI2378
(dp2562
sI2379
(dp2563
sI2380
(dp2564
sI2381
(dp2565
sI2382
(dp2566
sI2383
(dp2567
sI2384
(dp2568
sI2385
(dp2569
sI2386
(dp2570
sI2387
(dp2571
sI2388
(dp2572
sI2389
(dp2573
sI2390
(dp2574
sI2391
(dp2575
sI2392
(dp2576
sI2393
(dp2577
sI2394
(dp2578
sI2395
(dp2579
sI2396
(dp2580
sI2397
(dp2581
sI2398
(dp2582
sI2399
(dp2583
sI2400
(dp2584
sI2401
(dp2585
sI2402
(dp2586
sI2403
(dp2587
sI2404
(dp2588
sI2405
(dp2589
sI2406
(dp2590
sI2407
(dp2591
sI2408
(dp2592
sI2409
(dp2593
sI2410
(dp2594
sI2411
(dp2595
sI2412
(dp2596
sI2413
(dp2597
sI2414
(dp2598
sI2415
(dp2599
sI2416
(dp2600
sI2417
(dp2601
sI2418
(dp2602
sI2419
(dp2603
sI2420
(dp2604
sI2421
(dp2605
sI2422
(dp2606
sI2423
(dp2607
sI2424
(dp2608
sI2425
(dp2609
sI2426
(dp2610
sI2427
(dp2611
sI2428
(dp2612
sI2429
(dp2613
sI2430
(dp2614
sI2431
(dp2615
sI2432
(dp2616
sI2433
(dp2617
sI2434
(dp2618
sI2435
(dp2619
sI2436
(dp2620
sI2437
(dp2621
sI2438
(dp2622
sI2439
(dp2623
sI2440
(dp2624
sI2441
(dp2625
sI2442
(dp2626
sI2443
(dp2627
sI2444
(dp2628
sI2445
(dp2629
sI2446
(dp2630
sI2447
(dp2631
sI2448
(dp2632
sI2449
(dp2633
sI2450
(dp2634
sI2451
(dp2635
sI2452
(dp2636
sI2453
(dp2637
sI2454
(dp2638
sI2455
(dp2639
sI2456
(dp2640
sI2457
(dp2641
sI2458
(dp2642
sI2459
(dp2643
sI2460
(dp2644
sI2461
(dp2645
sI2462
(dp2646
sI2463
(dp2647
sI2464
(dp2648
sI2465
(dp2649
sI2466
(dp2650
sI2467
(dp2651
sI2468
(dp2652
sI2469
(dp2653
sI2470
(dp2654
sI2471
(dp2655
sI2472
(dp2656
sI2473
(dp2657
sI2474
(dp2658
sI2475
(dp2659
sI2476
(dp2660
sI2477
(dp2661
sI2478
(dp2662
sI2479
(dp2663
sI2480
(dp2664
sI2481
(dp2665
sI2482
(dp2666
sI2483
(dp2667
sI2484
(dp2668
sI2485
(dp2669
sI2486
(dp2670
sI2487
(dp2671
sI2488
(dp2672
sI2489
(dp2673
sI2490
(dp2674
sI2491
(dp2675
sI2492
(dp2676
sI2493
(dp2677
sI2494
(dp2678
sI2495
(dp2679
sI2496
(dp2680
sI2497
(dp2681
sI2498
(dp2682
sI2499
(dp2683
sI2500
(dp2684
sI2501
(dp2685
sI2502
(dp2686
sI2503
(dp2687
sI2504
(dp2688
sI2505
(dp2689
sI2506
(dp2690
sI2507
(dp2691
sI2508
(dp2692
sI2509
(dp2693
sI2510
(dp2694
sI2511
(dp2695
sI2512
(dp2696
sI2513
(dp2697
sI2514
(dp2698
sI2515
(dp2699
sI2516
(dp2700
sI2517
(dp2701
sI2518
(dp2702
sI2519
(dp2703
sI2520
(dp2704
sI2521
(dp2705
sI2522
(dp2706
sI2523
(dp2707
sI2524
(dp2708
sI2525
(dp2709
sI2526
(dp2710
sI2527
(dp2711
sI2528
(dp2712
sI2529
(dp2713
sI2530
(dp2714
sI2531
(dp2715
sI2532
(dp2716
sI2533
(dp2717
sI2534
(dp2718
sI2535
(dp2719
sI2536
(dp2720
sI2537
(dp2721
sI2538
(dp2722
sI2539
(dp2723
sI2540
(dp2724
sI2541
(dp2725
sI2542
(dp2726
sI2543
(dp2727
sI2544
(dp2728
sI2545
(dp2729
sI2546
(dp2730
sI2547
(dp2731
sI2548
(dp2732
sI2549
(dp2733
sI2550
(dp2734
sI2551
(dp2735
sI2552
(dp2736
sI2553
(dp2737
sI2554
(dp2738
sI2555
(dp2739
sI2556
(dp2740
sI2557
(dp2741
sI2558
(dp2742
sI2559
(dp2743
sI2560
(dp2744
sI2561
(dp2745
sI2562
(dp2746
sI2563
(dp2747
sI2564
(dp2748
sI2565
(dp2749
sI2566
(dp2750
sI2567
(dp2751
sI2568
(dp2752
sI2569
(dp2753
sI2570
(dp2754
sI2571
(dp2755
sI2572
(dp2756
sI2573
(dp2757
sI2574
(dp2758
sI2575
(dp2759
sI2576
(dp2760
sI2577
(dp2761
sI2578
(dp2762
sI2579
(dp2763
sI2580
(dp2764
sI2581
(dp2765
sI2582
(dp2766
sI2583
(dp2767
sI2584
(dp2768
sI2585
(dp2769
sI2586
(dp2770
sI2587
(dp2771
sI2588
(dp2772
sI2589
(dp2773
sI2590
(dp2774
sI2591
(dp2775
sI2592
(dp2776
sI2593
(dp2777
sI2594
(dp2778
sI2595
(dp2779
sI2596
(dp2780
sI2597
(dp2781
sI2598
(dp2782
sI2599
(dp2783
sI2600
(dp2784
sI2601
(dp2785
sI2602
(dp2786
sI2603
(dp2787
sI2604
(dp2788
sI2605
(dp2789
sI2606
(dp2790
sI2607
(dp2791
sI2608
(dp2792
sI2609
(dp2793
sI2610
(dp2794
sI2611
(dp2795
sI2612
(dp2796
sI2613
(dp2797
sI2614
(dp2798
sI2615
(dp2799
sI2616
(dp2800
sI2617
(dp2801
sI2618
(dp2802
sI2619
(dp2803
sI2620
(dp2804
sI2621
(dp2805
sI2622
(dp2806
sI2623
(dp2807
sI2624
(dp2808
sI2625
(dp2809
sI2626
(dp2810
sI2627
(dp2811
sI2628
(dp2812
sI2629
(dp2813
sI2630
(dp2814
sI2631
(dp2815
sI2632
(dp2816
sI2633
(dp2817
sI2634
(dp2818
sI2635
(dp2819
sI2636
(dp2820
sI2637
(dp2821
sI2638
(dp2822
sI2639
(dp2823
sI2640
(dp2824
sI2641
(dp2825
sI2642
(dp2826
sI2643
(dp2827
sI2644
(dp2828
sI2645
(dp2829
sI2646
(dp2830
sI2647
(dp2831
sI2648
(dp2832
sI2649
(dp2833
sI2650
(dp2834
sI2651
(dp2835
sI2652
(dp2836
sI2653
(dp2837
sI2654
(dp2838
sI2655
(dp2839
sI2656
(dp2840
sI2657
(dp2841
sI2658
(dp2842
sI2659
(dp2843
sI2660
(dp2844
sI2661
(dp2845
sI2662
(dp2846
sI2663
(dp2847
sI2664
(dp2848
sI2665
(dp2849
sI2666
(dp2850
sI2667
(dp2851
sI2668
(dp2852
sI2669
(dp2853
sI2670
(dp2854
sI2671
(dp2855
sI2672
(dp2856
sI2673
(dp2857
sI2674
(dp2858
sI2675
(dp2859
sI2676
(dp2860
sI2677
(dp2861
sI2678
(dp2862
sI2679
(dp2863
sI2680
(dp2864
sI2681
(dp2865
sI2682
(dp2866
sI2683
(dp2867
sI2684
(dp2868
sI2685
(dp2869
sI2686
(dp2870
sI2687
(dp2871
sI2688
(dp2872
sI2689
(dp2873
sI2690
(dp2874
sI2691
(dp2875
sI2692
(dp2876
sI2693
(dp2877
sI2694
(dp2878
sI2695
(dp2879
sI2696
(dp2880
sI2697
(dp2881
sI2698
(dp2882
sI2699
(dp2883
sI2700
(dp2884
sI2701
(dp2885
sI2702
(dp2886
sI2703
(dp2887
sI2704
(dp2888
sI2705
(dp2889
sI2706
(dp2890
sI2707
(dp2891
sI2708
(dp2892
sI2709
(dp2893
sI2710
(dp2894
sI2711
(dp2895
sI2712
(dp2896
sI2713
(dp2897
sI2714
(dp2898
sI2715
(dp2899
sI2716
(dp2900
sI2717
(dp2901
sI2718
(dp2902
sI2719
(dp2903
sI2720
(dp2904
sI2721
(dp2905
sI2722
(dp2906
sI2723
(dp2907
sI2724
(dp2908
sI2725
(dp2909
sI2726
(dp2910
sI2727
(dp2911
sI2728
(dp2912
sI2729
(dp2913
sI2730
(dp2914
sI2731
(dp2915
sI2732
(dp2916
sI2733
(dp2917
sI2734
(dp2918
sI2735
(dp2919
sI2736
(dp2920
sI2737
(dp2921
sI2738
(dp2922
sI2739
(dp2923
sI2740
(dp2924
sI2741
(dp2925
sI2742
(dp2926
sI2743
(dp2927
sI2744
(dp2928
sI2745
(dp2929
sI2746
(dp2930
sI2747
(dp2931
sI2748
(dp2932
sI2749
(dp2933
sI2750
(dp2934
sI2751
(dp2935
sI2752
(dp2936
sI2753
(dp2937
sI2754
(dp2938
sI2755
(dp2939
sI2756
(dp2940
sI2757
(dp2941
sI2758
(dp2942
sI2759
(dp2943
sI2760
(dp2944
sI2761
(dp2945
sI2762
(dp2946
sI2763
(dp2947
sI2764
(dp2948
sI2765
(dp2949
sI2766
(dp2950
sI2767
(dp2951
sI2768
(dp2952
sI2769
(dp2953
sI2770
(dp2954
sI2771
(dp2955
sI2772
(dp2956
sI2773
(dp2957
sI2774
(dp2958
sI2775
(dp2959
sI2776
(dp2960
sI2777
(dp2961
sI2778
(dp2962
sI2779
(dp2963
sI2780
(dp2964
sI2781
(dp2965
sI2782
(dp2966
sI2783
(dp2967
sI2784
(dp2968
sI2785
(dp2969
sI2786
(dp2970
sI2787
(dp2971
sI2788
(dp2972
sI2789
(dp2973
sI2790
(dp2974
sI2791
(dp2975
sI2792
(dp2976
sI2793
(dp2977
sI2794
(dp2978
sI2795
(dp2979
sI2796
(dp2980
sI2797
(dp2981
sI2798
(dp2982
sI2799
(dp2983
sI2800
(dp2984
sI2801
(dp2985
sI2802
(dp2986
sI2803
(dp2987
sI2804
(dp2988
sI2805
(dp2989
sI2806
(dp2990
sI2807
(dp2991
sI2808
(dp2992
sI2809
(dp2993
sI2810
(dp2994
sI2811
(dp2995
sI2812
(dp2996
sI2813
(dp2997
sI2814
(dp2998
sI2815
(dp2999
sI2816
(dp3000
sI2817
(dp3001
sI2818
(dp3002
sI2819
(dp3003
sI2820
(dp3004
sI2821
(dp3005
sI2822
(dp3006
sI2823
(dp3007
sI2824
(dp3008
sI2825
(dp3009
sI2826
(dp3010
sI2827
(dp3011
sI2828
(dp3012
sI2829
(dp3013
sI2830
(dp3014
sI2831
(dp3015
sI2832
(dp3016
sI2833
(dp3017
sI2834
(dp3018
sI2835
(dp3019
sI2836
(dp3020
sI2837
(dp3021
sI2838
(dp3022
sI2839
(dp3023
sI2840
(dp3024
sI2841
(dp3025
sI2842
(dp3026
sI2843
(dp3027
sI2844
(dp3028
sI2845
(dp3029
sI2846
(dp3030
sI2847
(dp3031
sI2848
(dp3032
sI2849
(dp3033
sI2850
(dp3034
sI2851
(dp3035
sI2852
(dp3036
sI2853
(dp3037
sI2854
(dp3038
sI2855
(dp3039
sI2856
(dp3040
sI2857
(dp3041
sI2858
(dp3042
sI2859
(dp3043
sI2860
(dp3044
sI2861
(dp3045
sI2862
(dp3046
sI2863
(dp3047
sI2864
(dp3048
sI2865
(dp3049
sI2866
(dp3050
sI2867
(dp3051
sI2868
(dp3052
sI2869
(dp3053
sI2870
(dp3054
sI2871
(dp3055
sI2872
(dp3056
sI2873
(dp3057
sI2874
(dp3058
sI2875
(dp3059
sI2876
(dp3060
sI2877
(dp3061
sI2878
(dp3062
sI2879
(dp3063
sI2880
(dp3064
sI2881
(dp3065
sI2882
(dp3066
sI2883
(dp3067
sI2884
(dp3068
sI2885
(dp3069
sI2886
(dp3070
sI2887
(dp3071
sI2888
(dp3072
sI2889
(dp3073
sI2890
(dp3074
sI2891
(dp3075
sI2892
(dp3076
sI2893
(dp3077
sI2894
(dp3078
sI2895
(dp3079
sI2896
(dp3080
sI2897
(dp3081
sI2898
(dp3082
sI2899
(dp3083
sI2900
(dp3084
sI2901
(dp3085
sI2902
(dp3086
sI2903
(dp3087
sI2904
(dp3088
sI2905
(dp3089
sI2906
(dp3090
sI2907
(dp3091
sI2908
(dp3092
sI2909
(dp3093
sI2910
(dp3094
sI2911
(dp3095
sI2912
(dp3096
sI2913
(dp3097
sI2914
(dp3098
sI2915
(dp3099
sI2916
(dp3100
sI2917
(dp3101
sI2918
(dp3102
sI2919
(dp3103
sI2920
(dp3104
sI2921
(dp3105
sI2922
(dp3106
sI2923
(dp3107
sI2924
(dp3108
sI2925
(dp3109
sI2926
(dp3110
sI2927
(dp3111
sI2928
(dp3112
sI2929
(dp3113
sI2930
(dp3114
sI2931
(dp3115
sI2932
(dp3116
sI2933
(dp3117
sI2934
(dp3118
sI2935
(dp3119
sI2936
(dp3120
sI2937
(dp3121
sI2938
(dp3122
sI2939
(dp3123
sI2940
(dp3124
sI2941
(dp3125
sI2942
(dp3126
sI2943
(dp3127
sI2944
(dp3128
sI2945
(dp3129
sI2946
(dp3130
sI2947
(dp3131
sI2948
(dp3132
sI2949
(dp3133
sI2950
(dp3134
sI2951
(dp3135
sI2952
(dp3136
sI2953
(dp3137
sI2954
(dp3138
sI2955
(dp3139
sI2956
(dp3140
sI2957
(dp3141
sI2958
(dp3142
sI2959
(dp3143
sI2960
(dp3144
sI2961
(dp3145
sI2962
(dp3146
sI2963
(dp3147
sI2964
(dp3148
sI2965
(dp3149
sI2966
(dp3150
sI2967
(dp3151
sI2968
(dp3152
sI2969
(dp3153
sI2970
(dp3154
sI2971
(dp3155
sI2972
(dp3156
sI2973
(dp3157
sI2974
(dp3158
sI2975
(dp3159
sI2976
(dp3160
sI2977
(dp3161
sI2978
(dp3162
sI2979
(dp3163
sI2980
(dp3164
sI2981
(dp3165
sI2982
(dp3166
sI2983
(dp3167
sI2984
(dp3168
sI2985
(dp3169
sI2986
(dp3170
sI2987
(dp3171
sI2988
(dp3172
sI2989
(dp3173
sI2990
(dp3174
sI2991
(dp3175
sI2992
(dp3176
sI2993
(dp3177
sI2994
(dp3178
sI2995
(dp3179
sI2996
(dp3180
sI2997
(dp3181
sI2998
(dp3182
sI2999
(dp3183
sI3000
(dp3184
sI3001
(dp3185
sI3002
(dp3186
sI3003
(dp3187
sI3004
(dp3188
sI3005
(dp3189
sI3006
(dp3190
sI3007
(dp3191
sI3008
(dp3192
sI3009
(dp3193
sI3010
(dp3194
sI3011
(dp3195
sI3012
(dp3196
sI3013
(dp3197
sI3014
(dp3198
sI3015
(dp3199
sI3016
(dp3200
sI3017
(dp3201
sI3018
(dp3202
sI3019
(dp3203
sI3020
(dp3204
sI3021
(dp3205
sI3022
(dp3206
sI3023
(dp3207
sI3024
(dp3208
sI3025
(dp3209
sI3026
(dp3210
sI3027
(dp3211
sI3028
(dp3212
sI3029
(dp3213
sI3030
(dp3214
sI3031
(dp3215
sI3032
(dp3216
sI3033
(dp3217
sI3034
(dp3218
sI3035
(dp3219
sI3036
(dp3220
sI3037
(dp3221
sI3038
(dp3222
sI3039
(dp3223
sI3040
(dp3224
sI3041
(dp3225
sI3042
(dp3226
sI3043
(dp3227
sI3044
(dp3228
sI3045
(dp3229
sI3046
(dp3230
sI3047
(dp3231
sI3048
(dp3232
sI3049
(dp3233
sI3050
(dp3234
sI3051
(dp3235
sI3052
(dp3236
sI3053
(dp3237
sI3054
(dp3238
sI3055
(dp3239
sI3056
(dp3240
sI3057
(dp3241
sI3058
(dp3242
sI3059
(dp3243
sI3060
(dp3244
sI3061
(dp3245
sI3062
(dp3246
sI3063
(dp3247
sI3064
(dp3248
sI3065
(dp3249
sI3066
(dp3250
sI3067
(dp3251
sI3068
(dp3252
sI3069
(dp3253
sI3070
(dp3254
sI3071
(dp3255
sI3072
(dp3256
sI3073
(dp3257
sI3074
(dp3258
sI3075
(dp3259
sI3076
(dp3260
sI3077
(dp3261
sI3078
(dp3262
sI3079
(dp3263
sI3080
(dp3264
sI3081
(dp3265
sI3082
(dp3266
sI3083
(dp3267
sI3084
(dp3268
sI3085
(dp3269
sI3086
(dp3270
sI3087
(dp3271
sI3088
(dp3272
sI3089
(dp3273
sI3090
(dp3274
sI3091
(dp3275
sI3092
(dp3276
sI3093
(dp3277
sI3094
(dp3278
sI3095
(dp3279
sI3096
(dp3280
sI3097
(dp3281
sI3098
(dp3282
sI3099
(dp3283
sI3100
(dp3284
sI3101
(dp3285
sI3102
(dp3286
sI3103
(dp3287
sI3104
(dp3288
sI3105
(dp3289
sI3106
(dp3290
sI3107
(dp3291
sI3108
(dp3292
sI3109
(dp3293
sI3110
(dp3294
sI3111
(dp3295
sI3112
(dp3296
sI3113
(dp3297
sI3114
(dp3298
sI3115
(dp3299
sI3116
(dp3300
sI3117
(dp3301
sI3118
(dp3302
sI3119
(dp3303
sI3120
(dp3304
sI3121
(dp3305
sI3122
(dp3306
sI3123
(dp3307
sI3124
(dp3308
sI3125
(dp3309
sI3126
(dp3310
sI3127
(dp3311
sI3128
(dp3312
sI3129
(dp3313
sI3130
(dp3314
sI3131
(dp3315
sI3132
(dp3316
sI3133
(dp3317
sI3134
(dp3318
sI3135
(dp3319
sI3136
(dp3320
sI3137
(dp3321
sI3138
(dp3322
sI3139
(dp3323
sI3140
(dp3324
sI3141
(dp3325
sI3142
(dp3326
sI3143
(dp3327
sI3144
(dp3328
sI3145
(dp3329
sI3146
(dp3330
sI3147
(dp3331
sI3148
(dp3332
sI3149
(dp3333
sI3150
(dp3334
sI3151
(dp3335
sI3152
(dp3336
sI3153
(dp3337
sI3154
(dp3338
sI3155
(dp3339
sI3156
(dp3340
sI3157
(dp3341
sI3158
(dp3342
sI3159
(dp3343
sI3160
(dp3344
sI3161
(dp3345
sI3162
(dp3346
sI3163
(dp3347
sI3164
(dp3348
sI3165
(dp3349
sI3166
(dp3350
sI3167
(dp3351
sI3168
(dp3352
sI3169
(dp3353
sI3170
(dp3354
sI3171
(dp3355
sI3172
(dp3356
sI3173
(dp3357
sI3174
(dp3358
sI3175
(dp3359
sI3176
(dp3360
sI3177
(dp3361
sI3178
(dp3362
sI3179
(dp3363
sI3180
(dp3364
sI3181
(dp3365
sI3182
(dp3366
sI3183
(dp3367
sI3184
(dp3368
sI3185
(dp3369
sI3186
(dp3370
sI3187
(dp3371
sI3188
(dp3372
sI3189
(dp3373
sI3190
(dp3374
sI3191
(dp3375
sI3192
(dp3376
sI3193
(dp3377
sI3194
(dp3378
sI3195
(dp3379
sI3196
(dp3380
sI3197
(dp3381
sI3198
(dp3382
sI3199
(dp3383
sI3200
(dp3384
sI3201
(dp3385
sI3202
(dp3386
sI3203
(dp3387
sI3204
(dp3388
sI3205
(dp3389
sI3206
(dp3390
sI3207
(dp3391
sI3208
(dp3392
sI3209
(dp3393
sI3210
(dp3394
sI3211
(dp3395
sI3212
(dp3396
sI3213
(dp3397
sI3214
(dp3398
sI3215
(dp3399
sI3216
(dp3400
sI3217
(dp3401
sI3218
(dp3402
sI3219
(dp3403
sI3220
(dp3404
sI3221
(dp3405
sI3222
(dp3406
sI3223
(dp3407
sI3224
(dp3408
sI3225
(dp3409
sI3226
(dp3410
sI3227
(dp3411
sI3228
(dp3412
sI3229
(dp3413
sI3230
(dp3414
sI3231
(dp3415
sI3232
(dp3416
sI3233
(dp3417
sI3234
(dp3418
sI3235
(dp3419
sI3236
(dp3420
sI3237
(dp3421
sI3238
(dp3422
sI3239
(dp3423
sI3240
(dp3424
sI3241
(dp3425
sI3242
(dp3426
sI3243
(dp3427
sI3244
(dp3428
sI3245
(dp3429
sI3246
(dp3430
sI3247
(dp3431
sI3248
(dp3432
sI3249
(dp3433
sI3250
(dp3434
sI3251
(dp3435
sI3252
(dp3436
sI3253
(dp3437
sI3254
(dp3438
sI3255
(dp3439
sI3256
(dp3440
sI3257
(dp3441
sI3258
(dp3442
sI3259
(dp3443
sI3260
(dp3444
sI3261
(dp3445
sI3262
(dp3446
sI3263
(dp3447
sI3264
(dp3448
sI3265
(dp3449
sI3266
(dp3450
sI3267
(dp3451
sI3268
(dp3452
sI3269
(dp3453
sI3270
(dp3454
sI3271
(dp3455
sI3272
(dp3456
sI3273
(dp3457
sI3274
(dp3458
sI3275
(dp3459
sI3276
(dp3460
sI3277
(dp3461
sI3278
(dp3462
sI3279
(dp3463
sI3280
(dp3464
sI3281
(dp3465
sI3282
(dp3466
sI3283
(dp3467
sI3284
(dp3468
sI3285
(dp3469
sI3286
(dp3470
sI3287
(dp3471
sI3288
(dp3472
sI3289
(dp3473
sI3290
(dp3474
sI3291
(dp3475
sI3292
(dp3476
sI3293
(dp3477
sI3294
(dp3478
sI3295
(dp3479
sI3296
(dp3480
sI3297
(dp3481
sI3298
(dp3482
sI3299
(dp3483
sI3300
(dp3484
sI3301
(dp3485
sI3302
(dp3486
sI3303
(dp3487
sI3304
(dp3488
sI3305
(dp3489
sI3306
(dp3490
sI3307
(dp3491
sI3308
(dp3492
sI3309
(dp3493
sI3310
(dp3494
sI3311
(dp3495
sI3312
(dp3496
sI3313
(dp3497
sI3314
(dp3498
sI3315
(dp3499
sI3316
(dp3500
sI3317
(dp3501
sI3318
(dp3502
sI3319
(dp3503
sI3320
(dp3504
sI3321
(dp3505
sI3322
(dp3506
sI3323
(dp3507
sI3324
(dp3508
sI3325
(dp3509
sI3326
(dp3510
sI3327
(dp3511
sI3328
(dp3512
sI3329
(dp3513
sI3330
(dp3514
sI3331
(dp3515
sI3332
(dp3516
sI3333
(dp3517
sI3334
(dp3518
sI3335
(dp3519
sI3336
(dp3520
sI3337
(dp3521
sI3338
(dp3522
sI3339
(dp3523
sI3340
(dp3524
sI3341
(dp3525
sI3342
(dp3526
sI3343
(dp3527
sI3344
(dp3528
sI3345
(dp3529
sI3346
(dp3530
sI3347
(dp3531
sI3348
(dp3532
sI3349
(dp3533
sI3350
(dp3534
sI3351
(dp3535
sI3352
(dp3536
sI3353
(dp3537
sI3354
(dp3538
sI3355
(dp3539
sI3356
(dp3540
sI3357
(dp3541
sI3358
(dp3542
sI3359
(dp3543
sI3360
(dp3544
sI3361
(dp3545
sI3362
(dp3546
sI3363
(dp3547
sI3364
(dp3548
sI3365
(dp3549
sI3366
(dp3550
sI3367
(dp3551
sI3368
(dp3552
sI3369
(dp3553
sI3370
(dp3554
sI3371
(dp3555
sI3372
(dp3556
sI3373
(dp3557
sI3374
(dp3558
sI3375
(dp3559
sI3376
(dp3560
sI3377
(dp3561
sI3378
(dp3562
sI3379
(dp3563
sI3380
(dp3564
sI3381
(dp3565
sI3382
(dp3566
sI3383
(dp3567
sI3384
(dp3568
sI3385
(dp3569
sI3386
(dp3570
sI3387
(dp3571
sI3388
(dp3572
sI3389
(dp3573
sI3390
(dp3574
sI3391
(dp3575
sI3392
(dp3576
sI3393
(dp3577
sI3394
(dp3578
sI3395
(dp3579
sI3396
(dp3580
sI3397
(dp3581
sI3398
(dp3582
sI3399
(dp3583
sI3400
(dp3584
sI3401
(dp3585
sI3402
(dp3586
sI3403
(dp3587
sI3404
(dp3588
sI3405
(dp3589
sI3406
(dp3590
sI3407
(dp3591
sI3408
(dp3592
sI3409
(dp3593
sI3410
(dp3594
sI3411
(dp3595
sI3412
(dp3596
sI3413
(dp3597
sI3414
(dp3598
sI3415
(dp3599
sI3416
(dp3600
sI3417
(dp3601
sI3418
(dp3602
sI3419
(dp3603
sI3420
(dp3604
sI3421
(dp3605
sI3422
(dp3606
sI3423
(dp3607
sI3424
(dp3608
sI3425
(dp3609
sI3426
(dp3610
sI3427
(dp3611
sI3428
(dp3612
sI3429
(dp3613
sI3430
(dp3614
sI3431
(dp3615
sI3432
(dp3616
sI3433
(dp3617
sI3434
(dp3618
sI3435
(dp3619
sI3436
(dp3620
sI3437
(dp3621
sI3438
(dp3622
sI3439
(dp3623
sI3440
(dp3624
sI3441
(dp3625
sI3442
(dp3626
sI3443
(dp3627
sI3444
(dp3628
sI3445
(dp3629
sI3446
(dp3630
sI3447
(dp3631
sI3448
(dp3632
sI3449
(dp3633
sI3450
(dp3634
sI3451
(dp3635
sI3452
(dp3636
sI3453
(dp3637
sI3454
(dp3638
sI3455
(dp3639
sI3456
(dp3640
sI3457
(dp3641
sI3458
(dp3642
sI3459
(dp3643
sI3460
(dp3644
sI3461
(dp3645
sI3462
(dp3646
sI3463
(dp3647
sI3464
(dp3648
sI3465
(dp3649
sI3466
(dp3650
sI3467
(dp3651
sI3468
(dp3652
sI3469
(dp3653
sI3470
(dp3654
sI3471
(dp3655
sI3472
(dp3656
sI3473
(dp3657
sI3474
(dp3658
sI3475
(dp3659
sI3476
(dp3660
sI3477
(dp3661
sI3478
(dp3662
sI3479
(dp3663
sI3480
(dp3664
sI3481
(dp3665
sI3482
(dp3666
sI3483
(dp3667
sI3484
(dp3668
sI3485
(dp3669
sI3486
(dp3670
sI3487
(dp3671
sI3488
(dp3672
sI3489
(dp3673
sI3490
(dp3674
sI3491
(dp3675
sI3492
(dp3676
sI3493
(dp3677
sI3494
(dp3678
sI3495
(dp3679
sI3496
(dp3680
sI3497
(dp3681
sI3498
(dp3682
sI3499
(dp3683
sI3500
(dp3684
sI3501
(dp3685
sI3502
(dp3686
sI3503
(dp3687
sI3504
(dp3688
sI3505
(dp3689
sI3506
(dp3690
sI3507
(dp3691
sI3508
(dp3692
sI3509
(dp3693
sI3510
(dp3694
sI3511
(dp3695
sI3512
(dp3696
sI3513
(dp3697
sI3514
(dp3698
sI3515
(dp3699
sI3516
(dp3700
sI3517
(dp3701
sI3518
(dp3702
sI3519
(dp3703
sI3520
(dp3704
sI3521
(dp3705
sI3522
(dp3706
sI3523
(dp3707
sI3524
(dp3708
sI3525
(dp3709
sI3526
(dp3710
sI3527
(dp3711
sI3528
(dp3712
sI3529
(dp3713
sI3530
(dp3714
sI3531
(dp3715
sI3532
(dp3716
sI3533
(dp3717
sI3534
(dp3718
sI3535
(dp3719
sI3536
(dp3720
sI3537
(dp3721
sI3538
(dp3722
sI3539
(dp3723
sI3540
(dp3724
sI3541
(dp3725
sI3542
(dp3726
sI3543
(dp3727
sI3544
(dp3728
sI3545
(dp3729
sI3546
(dp3730
sI3547
(dp3731
sI3548
(dp3732
sI3549
(dp3733
sI3550
(dp3734
sI3551
(dp3735
sI3552
(dp3736
sI3553
(dp3737
sI3554
(dp3738
sI3555
(dp3739
sI3556
(dp3740
sI3557
(dp3741
sI3558
(dp3742
sI3559
(dp3743
sI3560
(dp3744
sI3561
(dp3745
sI3562
(dp3746
sI3563
(dp3747
sI3564
(dp3748
sI3565
(dp3749
sI3566
(dp3750
sI3567
(dp3751
sI3568
(dp3752
sI3569
(dp3753
sI3570
(dp3754
sI3571
(dp3755
sI3572
(dp3756
sI3573
(dp3757
sI3574
(dp3758
sI3575
(dp3759
sI3576
(dp3760
sI3577
(dp3761
sI3578
(dp3762
sI3579
(dp3763
sI3580
(dp3764
sI3581
(dp3765
sI3582
(dp3766
sI3583
(dp3767
sI3584
(dp3768
sI3585
(dp3769
sI3586
(dp3770
sI3587
(dp3771
sI3588
(dp3772
sI3589
(dp3773
sI3590
(dp3774
sI3591
(dp3775
sI3592
(dp3776
sI3593
(dp3777
sI3594
(dp3778
sI3595
(dp3779
sI3596
(dp3780
sI3597
(dp3781
sI3598
(dp3782
sI3599
(dp3783
sI3600
(dp3784
sI3601
(dp3785
sI3602
(dp3786
sI3603
(dp3787
sI3604
(dp3788
sI3605
(dp3789
sI3606
(dp3790
sI3607
(dp3791
sI3608
(dp3792
sI3609
(dp3793
sI3610
(dp3794
sI3611
(dp3795
sI3612
(dp3796
sI3613
(dp3797
sI3614
(dp3798
sI3615
(dp3799
sI3616
(dp3800
sI3617
(dp3801
sI3618
(dp3802
sI3619
(dp3803
sI3620
(dp3804
sI3621
(dp3805
sI3622
(dp3806
sI3623
(dp3807
sI3624
(dp3808
sI3625
(dp3809
sI3626
(dp3810
sI3627
(dp3811
sI3628
(dp3812
sI3629
(dp3813
sI3630
(dp3814
sI3631
(dp3815
sI3632
(dp3816
sI3633
(dp3817
sI3634
(dp3818
sI3635
(dp3819
sI3636
(dp3820
sI3637
(dp3821
sI3638
(dp3822
sI3639
(dp3823
sI3640
(dp3824
sI3641
(dp3825
sI3642
(dp3826
sI3643
(dp3827
sI3644
(dp3828
sI3645
(dp3829
sI3646
(dp3830
sI3647
(dp3831
sI3648
(dp3832
sI3649
(dp3833
sI3650
(dp3834
sI3651
(dp3835
sI3652
(dp3836
sI3653
(dp3837
sI3654
(dp3838
sI3655
(dp3839
sI3656
(dp3840
sI3657
(dp3841
sI3658
(dp3842
sI3659
(dp3843
sI3660
(dp3844
sI3661
(dp3845
sI3662
(dp3846
sI3663
(dp3847
sI3664
(dp3848
sI3665
(dp3849
sI3666
(dp3850
sI3667
(dp3851
sI3668
(dp3852
sI3669
(dp3853
sI3670
(dp3854
sI3671
(dp3855
sI3672
(dp3856
sI3673
(dp3857
sI3674
(dp3858
sI3675
(dp3859
sI3676
(dp3860
sI3677
(dp3861
sI3678
(dp3862
sI3679
(dp3863
sI3680
(dp3864
sI3681
(dp3865
sI3682
(dp3866
sI3683
(dp3867
sI3684
(dp3868
sI3685
(dp3869
sI3686
(dp3870
sI3687
(dp3871
sI3688
(dp3872
sI3689
(dp3873
sI3690
(dp3874
sI3691
(dp3875
sI3692
(dp3876
sI3693
(dp3877
sI3694
(dp3878
sI3695
(dp3879
sI3696
(dp3880
sI3697
(dp3881
sI3698
(dp3882
sI3699
(dp3883
sI3700
(dp3884
sI3701
(dp3885
sI3702
(dp3886
sI3703
(dp3887
sI3704
(dp3888
sI3705
(dp3889
sI3706
(dp3890
sI3707
(dp3891
sI3708
(dp3892
sI3709
(dp3893
sI3710
(dp3894
sI3711
(dp3895
sI3712
(dp3896
sI3713
(dp3897
sI3714
(dp3898
sI3715
(dp3899
sI3716
(dp3900
sI3717
(dp3901
sI3718
(dp3902
sI3719
(dp3903
sI3720
(dp3904
sI3721
(dp3905
sI3722
(dp3906
sI3723
(dp3907
sI3724
(dp3908
sI3725
(dp3909
sI3726
(dp3910
sI3727
(dp3911
sI3728
(dp3912
sI3729
(dp3913
sI3730
(dp3914
sI3731
(dp3915
sI3732
(dp3916
sI3733
(dp3917
sI3734
(dp3918
sI3735
(dp3919
sI3736
(dp3920
sI3737
(dp3921
sI3738
(dp3922
sI3739
(dp3923
sI3740
(dp3924
sI3741
(dp3925
sI3742
(dp3926
sI3743
(dp3927
sI3744
(dp3928
sI3745
(dp3929
sI3746
(dp3930
sI3747
(dp3931
sI3748
(dp3932
sI3749
(dp3933
sI3750
(dp3934
sI3751
(dp3935
sI3752
(dp3936
sI3753
(dp3937
sI3754
(dp3938
sI3755
(dp3939
sI3756
(dp3940
sI3757
(dp3941
sI3758
(dp3942
sI3759
(dp3943
sI3760
(dp3944
sI3761
(dp3945
sI3762
(dp3946
sI3763
(dp3947
sI3764
(dp3948
sI3765
(dp3949
sI3766
(dp3950
sI3767
(dp3951
sI3768
(dp3952
sI3769
(dp3953
sI3770
(dp3954
sI3771
(dp3955
sI3772
(dp3956
sI3773
(dp3957
sI3774
(dp3958
sI3775
(dp3959
sI3776
(dp3960
sI3777
(dp3961
sI3778
(dp3962
sI3779
(dp3963
sI3780
(dp3964
sI3781
(dp3965
sI3782
(dp3966
sI3783
(dp3967
sI3784
(dp3968
sI3785
(dp3969
sI3786
(dp3970
sI3787
(dp3971
sI3788
(dp3972
sI3789
(dp3973
sI3790
(dp3974
sI3791
(dp3975
sI3792
(dp3976
sI3793
(dp3977
sI3794
(dp3978
sI3795
(dp3979
sI3796
(dp3980
sI3797
(dp3981
sI3798
(dp3982
sI3799
(dp3983
sI3800
(dp3984
sI3801
(dp3985
sI3802
(dp3986
sI3803
(dp3987
sI3804
(dp3988
sI3805
(dp3989
sI3806
(dp3990
sI3807
(dp3991
sI3808
(dp3992
sI3809
(dp3993
sI3810
(dp3994
sI3811
(dp3995
sI3812
(dp3996
sI3813
(dp3997
sI3814
(dp3998
sI3815
(dp3999
sI3816
(dp4000
sI3817
(dp4001
sI3818
(dp4002
sI3819
(dp4003
sI3820
(dp4004
sI3821
(dp4005
sI3822
(dp4006
sI3823
(dp4007
sI3824
(dp4008
sI3825
(dp4009
sI3826
(dp4010
sI3827
(dp4011
sI3828
(dp4012
sI3829
(dp4013
sI3830
(dp4014
sI3831
(dp4015
sI3832
(dp4016
sI3833
(dp4017
sI3834
(dp4018
sI3835
(dp4019
sI3836
(dp4020
sI3837
(dp4021
sI3838
(dp4022
sI3839
(dp4023
sI3840
(dp4024
sI3841
(dp4025
sI3842
(dp4026
sI3843
(dp4027
sI3844
(dp4028
sI3845
(dp4029
sI3846
(dp4030
sI3847
(dp4031
sI3848
(dp4032
sI3849
(dp4033
sI3850
(dp4034
sI3851
(dp4035
sI3852
(dp4036
sI3853
(dp4037
sI3854
(dp4038
sI3855
(dp4039
sI3856
(dp4040
sI3857
(dp4041
sI3858
(dp4042
sI3859
(dp4043
sI3860
(dp4044
sI3861
(dp4045
sI3862
(dp4046
sI3863
(dp4047
sI3864
(dp4048
sI3865
(dp4049
sI3866
(dp4050
sI3867
(dp4051
sI3868
(dp4052
sI3869
(dp4053
sI3870
(dp4054
sI3871
(dp4055
sI3872
(dp4056
sI3873
(dp4057
sI3874
(dp4058
sI3875
(dp4059
sI3876
(dp4060
sI3877
(dp4061
sI3878
(dp4062
sI3879
(dp4063
sI3880
(dp4064
sI3881
(dp4065
sI3882
(dp4066
sI3883
(dp4067
sI3884
(dp4068
sI3885
(dp4069
sI3886
(dp4070
sI3887
(dp4071
sI3888
(dp4072
sI3889
(dp4073
sI3890
(dp4074
sI3891
(dp4075
sI3892
(dp4076
sI3893
(dp4077
sI3894
(dp4078
sI3895
(dp4079
sI3896
(dp4080
sI3897
(dp4081
sI3898
(dp4082
sI3899
(dp4083
sI3900
(dp4084
sI3901
(dp4085
sI3902
(dp4086
sI3903
(dp4087
sI3904
(dp4088
sI3905
(dp4089
sI3906
(dp4090
sI3907
(dp4091
sI3908
(dp4092
sI3909
(dp4093
sI3910
(dp4094
sI3911
(dp4095
sI3912
(dp4096
sI3913
(dp4097
sI3914
(dp4098
sI3915
(dp4099
sI3916
(dp4100
sI3917
(dp4101
sI3918
(dp4102
sI3919
(dp4103
sI3920
(dp4104
sI3921
(dp4105
sI3922
(dp4106
sI3923
(dp4107
sI3924
(dp4108
sI3925
(dp4109
sI3926
(dp4110
sI3927
(dp4111
sI3928
(dp4112
sI3929
(dp4113
sI3930
(dp4114
sI3931
(dp4115
sI3932
(dp4116
sI3933
(dp4117
sI3934
(dp4118
sI3935
(dp4119
sI3936
(dp4120
sI3937
(dp4121
sI3938
(dp4122
sI3939
(dp4123
sI3940
(dp4124
sI3941
(dp4125
sI3942
(dp4126
sI3943
(dp4127
sI3944
(dp4128
sI3945
(dp4129
sI3946
(dp4130
sI3947
(dp4131
sI3948
(dp4132
sI3949
(dp4133
sI3950
(dp4134
sI3951
(dp4135
sI3952
(dp4136
sI3953
(dp4137
sI3954
(dp4138
sI3955
(dp4139
sI3956
(dp4140
sI3957
(dp4141
sI3958
(dp4142
sI3959
(dp4143
sI3960
(dp4144
sI3961
(dp4145
sI3962
(dp4146
sI3963
(dp4147
sI3964
(dp4148
sI3965
(dp4149
sI3966
(dp4150
sI3967
(dp4151
sI3968
(dp4152
sI3969
(dp4153
sI3970
(dp4154
sI3971
(dp4155
sI3972
(dp4156
sI3973
(dp4157
sI3974
(dp4158
sI3975
(dp4159
sI3976
(dp4160
sI3977
(dp4161
sI3978
(dp4162
sI3979
(dp4163
sI3980
(dp4164
sI3981
(dp4165
sI3982
(dp4166
sI3983
(dp4167
sI3984
(dp4168
sI3985
(dp4169
sI3986
(dp4170
sI3987
(dp4171
sI3988
(dp4172
sI3989
(dp4173
sI3990
(dp4174
sI3991
(dp4175
sI3992
(dp4176
sI3993
(dp4177
sI3994
(dp4178
sI3995
(dp4179
sI3996
(dp4180
sI3997
(dp4181
sI3998
(dp4182
sI3999
(dp4183
sI4000
(dp4184
sI4001
(dp4185
sI4002
(dp4186
sI4003
(dp4187
sI4004
(dp4188
sI4005
(dp4189
sI4006
(dp4190
sI4007
(dp4191
sI4008
(dp4192
sI4009
(dp4193
sI4010
(dp4194
sI4011
(dp4195
sI4012
(dp4196
sI4013
(dp4197
sI4014
(dp4198
sI4015
(dp4199
sI4016
(dp4200
sI4017
(dp4201
sI4018
(dp4202
sI4019
(dp4203
sI4020
(dp4204
sI4021
(dp4205
sI4022
(dp4206
sI4023
(dp4207
sI4024
(dp4208
sI4025
(dp4209
sI4026
(dp4210
sI4027
(dp4211
sI4028
(dp4212
sI4029
(dp4213
sI4030
(dp4214
sI4031
(dp4215
sI4032
(dp4216
sI4033
(dp4217
sI4034
(dp4218
sI4035
(dp4219
sI4036
(dp4220
sI4037
(dp4221
sI4038
(dp4222
sI4039
(dp4223
sI4040
(dp4224
sI4041
(dp4225
sI4042
(dp4226
sI4043
(dp4227
sI4044
(dp4228
sI4045
(dp4229
sI4046
(dp4230
sI4047
(dp4231
sI4048
(dp4232
sI4049
(dp4233
sI4050
(dp4234
sI4051
(dp4235
sI4052
(dp4236
sI4053
(dp4237
sI4054
(dp4238
sI4055
(dp4239
sI4056
(dp4240
sI4057
(dp4241
sI4058
(dp4242
sI4059
(dp4243
sI4060
(dp4244
sI4061
(dp4245
sI4062
(dp4246
sI4063
(dp4247
sI4064
(dp4248
sI4065
(dp4249
sI4066
(dp4250
sI4067
(dp4251
sI4068
(dp4252
sI4069
(dp4253
sI4070
(dp4254
sI4071
(dp4255
sI4072
(dp4256
sI4073
(dp4257
sI4074
(dp4258
sI4075
(dp4259
sI4076
(dp4260
sI4077
(dp4261
sI4078
(dp4262
sI4079
(dp4263
sI4080
(dp4264
sI4081
(dp4265
sI4082
(dp4266
sI4083
(dp4267
sI4084
(dp4268
sI4085
(dp4269
sI4086
(dp4270
sI4087
(dp4271
sI4088
(dp4272
sI4089
(dp4273
sI4090
(dp4274
sI4091
(dp4275
sI4092
(dp4276
sI4093
(dp4277
sI4094
(dp4278
sI4095
(dp4279
sI4096
(dp4280
sI4097
(dp4281
sI4098
(dp4282
sI4099
(dp4283
sI4100
(dp4284
sI4101
(dp4285
sI4102
(dp4286
sI4103
(dp4287
sI4104
(dp4288
sI4105
(dp4289
sI4106
(dp4290
sI4107
(dp4291
sI4108
(dp4292
sI4109
(dp4293
sI4110
(dp4294
sI4111
(dp4295
sI4112
(dp4296
sI4113
(dp4297
sI4114
(dp4298
sI4115
(dp4299
sI4116
(dp4300
sI4117
(dp4301
sI4118
(dp4302
sI4119
(dp4303
sI4120
(dp4304
sI4121
(dp4305
sI4122
(dp4306
sI4123
(dp4307
sI4124
(dp4308
sI4125
(dp4309
sI4126
(dp4310
sI4127
(dp4311
sI4128
(dp4312
sI4129
(dp4313
sI4130
(dp4314
sI4131
(dp4315
sI4132
(dp4316
sI4133
(dp4317
sI4134
(dp4318
sI4135
(dp4319
sI4136
(dp4320
sI4137
(dp4321
sI4138
(dp4322
sI4139
(dp4323
sI4140
(dp4324
sI4141
(dp4325
sI4142
(dp4326
sI4143
(dp4327
sI4144
(dp4328
sI4145
(dp4329
sI4146
(dp4330
sI4147
(dp4331
sI4148
(dp4332
sI4149
(dp4333
sI4150
(dp4334
sI4151
(dp4335
sI4152
(dp4336
sI4153
(dp4337
sI4154
(dp4338
sI4155
(dp4339
sI4156
(dp4340
sI4157
(dp4341
sI4158
(dp4342
sI4159
(dp4343
sI4160
(dp4344
sI4161
(dp4345
sI4162
(dp4346
sI4163
(dp4347
sI4164
(dp4348
sI4165
(dp4349
sI4166
(dp4350
sI4167
(dp4351
sI4168
(dp4352
sI4169
(dp4353
sI4170
(dp4354
sI4171
(dp4355
sI4172
(dp4356
sI4173
(dp4357
sI4174
(dp4358
sI4175
(dp4359
sI4176
(dp4360
sI4177
(dp4361
sI4178
(dp4362
sI4179
(dp4363
sI4180
(dp4364
sI4181
(dp4365
sI4182
(dp4366
sI4183
(dp4367
sI4184
(dp4368
sI4185
(dp4369
sI4186
(dp4370
sI4187
(dp4371
sI4188
(dp4372
sI4189
(dp4373
sI4190
(dp4374
sI4191
(dp4375
sI4192
(dp4376
sI4193
(dp4377
sI4194
(dp4378
sI4195
(dp4379
sI4196
(dp4380
sI4197
(dp4381
sI4198
(dp4382
sI4199
(dp4383
sI4200
(dp4384
sI4201
(dp4385
sI4202
(dp4386
sI4203
(dp4387
sI4204
(dp4388
sI4205
(dp4389
sI4206
(dp4390
sI4207
(dp4391
sI4208
(dp4392
sI4209
(dp4393
sI4210
(dp4394
sI4211
(dp4395
sI4212
(dp4396
sI4213
(dp4397
sI4214
(dp4398
sI4215
(dp4399
sI4216
(dp4400
sI4217
(dp4401
sI4218
(dp4402
sI4219
(dp4403
sI4220
(dp4404
sI4221
(dp4405
sI4222
(dp4406
sI4223
(dp4407
sI4224
(dp4408
sI4225
(dp4409
sI4226
(dp4410
sI4227
(dp4411
sI4228
(dp4412
sI4229
(dp4413
sI4230
(dp4414
sI4231
(dp4415
sI4232
(dp4416
sI4233
(dp4417
sI4234
(dp4418
sI4235
(dp4419
sI4236
(dp4420
sI4237
(dp4421
sI4238
(dp4422
sI4239
(dp4423
sI4240
(dp4424
sI4241
(dp4425
sI4242
(dp4426
sI4243
(dp4427
sI4244
(dp4428
sI4245
(dp4429
sI4246
(dp4430
sI4247
(dp4431
sI4248
(dp4432
sI4249
(dp4433
sI4250
(dp4434
sI4251
(dp4435
sI4252
(dp4436
sI4253
(dp4437
sI4254
(dp4438
sI4255
(dp4439
sI4256
(dp4440
sI4257
(dp4441
sI4258
(dp4442
sI4259
(dp4443
sI4260
(dp4444
sI4261
(dp4445
sI4262
(dp4446
sI4263
(dp4447
sI4264
(dp4448
sI4265
(dp4449
sI4266
(dp4450
sI4267
(dp4451
sI4268
(dp4452
sI4269
(dp4453
sI4270
(dp4454
sI4271
(dp4455
sI4272
(dp4456
sI4273
(dp4457
sI4274
(dp4458
sI4275
(dp4459
sI4276
(dp4460
sI4277
(dp4461
sI4278
(dp4462
sI4279
(dp4463
sI4280
(dp4464
sI4281
(dp4465
sI4282
(dp4466
sI4283
(dp4467
sI4284
(dp4468
sI4285
(dp4469
sI4286
(dp4470
sI4287
(dp4471
sI4288
(dp4472
sI4289
(dp4473
sI4290
(dp4474
sI4291
(dp4475
sI4292
(dp4476
sI4293
(dp4477
sI4294
(dp4478
sI4295
(dp4479
sI4296
(dp4480
sI4297
(dp4481
sI4298
(dp4482
sI4299
(dp4483
sI4300
(dp4484
sI4301
(dp4485
sI4302
(dp4486
sI4303
(dp4487
sI4304
(dp4488
sI4305
(dp4489
sI4306
(dp4490
sI4307
(dp4491
sI4308
(dp4492
sI4309
(dp4493
sI4310
(dp4494
sI4311
(dp4495
sI4312
(dp4496
sI4313
(dp4497
sI4314
(dp4498
sI4315
(dp4499
sI4316
(dp4500
sI4317
(dp4501
sI4318
(dp4502
sI4319
(dp4503
sI4320
(dp4504
sI4321
(dp4505
sI4322
(dp4506
sI4323
(dp4507
sI4324
(dp4508
sI4325
(dp4509
sI4326
(dp4510
sI4327
(dp4511
sI4328
(dp4512
sI4329
(dp4513
sI4330
(dp4514
sI4331
(dp4515
sI4332
(dp4516
sI4333
(dp4517
sI4334
(dp4518
sI4335
(dp4519
sI4336
(dp4520
sI4337
(dp4521
sI4338
(dp4522
sI4339
(dp4523
sI4340
(dp4524
sI4341
(dp4525
sI4342
(dp4526
sI4343
(dp4527
sI4344
(dp4528
sI4345
(dp4529
sI4346
(dp4530
sI4347
(dp4531
sI4348
(dp4532
sI4349
(dp4533
sI4350
(dp4534
sI4351
(dp4535
sI4352
(dp4536
sI4353
(dp4537
sI4354
(dp4538
sI4355
(dp4539
sI4356
(dp4540
sI4357
(dp4541
sI4358
(dp4542
sI4359
(dp4543
sI4360
(dp4544
sI4361
(dp4545
sI4362
(dp4546
sI4363
(dp4547
sI4364
(dp4548
sI4365
(dp4549
sI4366
(dp4550
sI4367
(dp4551
sI4368
(dp4552
sI4369
(dp4553
sI4370
(dp4554
sI4371
(dp4555
sI4372
(dp4556
sI4373
(dp4557
sI4374
(dp4558
sI4375
(dp4559
sI4376
(dp4560
sI4377
(dp4561
sI4378
(dp4562
sI4379
(dp4563
sI4380
(dp4564
sI4381
(dp4565
sI4382
(dp4566
sI4383
(dp4567
sI4384
(dp4568
sI4385
(dp4569
sI4386
(dp4570
sI4387
(dp4571
sI4388
(dp4572
sI4389
(dp4573
sI4390
(dp4574
sI4391
(dp4575
sI4392
(dp4576
sI4393
(dp4577
sI4394
(dp4578
sI4395
(dp4579
sI4396
(dp4580
sI4397
(dp4581
sI4398
(dp4582
sI4399
(dp4583
sI4400
(dp4584
sI4401
(dp4585
sI4402
(dp4586
sI4403
(dp4587
sI4404
(dp4588
sI4405
(dp4589
sI4406
(dp4590
sI4407
(dp4591
sI4408
(dp4592
sI4409
(dp4593
sI4410
(dp4594
sI4411
(dp4595
sI4412
(dp4596
sI4413
(dp4597
sI4414
(dp4598
sI4415
(dp4599
sI4416
(dp4600
sI4417
(dp4601
sI4418
(dp4602
sI4419
(dp4603
sI4420
(dp4604
sI4421
(dp4605
sI4422
(dp4606
sI4423
(dp4607
sI4424
(dp4608
sI4425
(dp4609
sI4426
(dp4610
sI4427
(dp4611
sI4428
(dp4612
sI4429
(dp4613
sI4430
(dp4614
sI4431
(dp4615
sI4432
(dp4616
sI4433
(dp4617
sI4434
(dp4618
sI4435
(dp4619
sI4436
(dp4620
sI4437
(dp4621
sI4438
(dp4622
sI4439
(dp4623
sI4440
(dp4624
sI4441
(dp4625
sI4442
(dp4626
sI4443
(dp4627
sI4444
(dp4628
sI4445
(dp4629
sI4446
(dp4630
sI4447
(dp4631
sI4448
(dp4632
sI4449
(dp4633
sI4450
(dp4634
sI4451
(dp4635
sI4452
(dp4636
sI4453
(dp4637
sI4454
(dp4638
sI4455
(dp4639
sI4456
(dp4640
sI4457
(dp4641
sI4458
(dp4642
sI4459
(dp4643
sI4460
(dp4644
sI4461
(dp4645
sI4462
(dp4646
sI4463
(dp4647
sI4464
(dp4648
sI4465
(dp4649
sI4466
(dp4650
sI4467
(dp4651
sI4468
(dp4652
sI4469
(dp4653
sI4470
(dp4654
sI4471
(dp4655
sI4472
(dp4656
sI4473
(dp4657
sI4474
(dp4658
sI4475
(dp4659
sI4476
(dp4660
sI4477
(dp4661
sI4478
(dp4662
sI4479
(dp4663
sI4480
(dp4664
sI4481
(dp4665
sI4482
(dp4666
sI4483
(dp4667
sI4484
(dp4668
sI4485
(dp4669
sI4486
(dp4670
sI4487
(dp4671
sI4488
(dp4672
sI4489
(dp4673
sI4490
(dp4674
sI4491
(dp4675
sI4492
(dp4676
sI4493
(dp4677
sI4494
(dp4678
sI4495
(dp4679
sI4496
(dp4680
sI4497
(dp4681
sI4498
(dp4682
sI4499
(dp4683
sI4500
(dp4684
sI4501
(dp4685
sI4502
(dp4686
sI4503
(dp4687
sI4504
(dp4688
sI4505
(dp4689
sI4506
(dp4690
sI4507
(dp4691
sI4508
(dp4692
sI4509
(dp4693
sI4510
(dp4694
sI4511
(dp4695
sI4512
(dp4696
sI4513
(dp4697
sI4514
(dp4698
sI4515
(dp4699
sI4516
(dp4700
sI4517
(dp4701
sI4518
(dp4702
sI4519
(dp4703
sI4520
(dp4704
sI4521
(dp4705
sI4522
(dp4706
sI4523
(dp4707
sI4524
(dp4708
sI4525
(dp4709
sI4526
(dp4710
sI4527
(dp4711
sI4528
(dp4712
sI4529
(dp4713
sI4530
(dp4714
sI4531
(dp4715
sI4532
(dp4716
sI4533
(dp4717
sI4534
(dp4718
sI4535
(dp4719
sI4536
(dp4720
sI4537
(dp4721
sI4538
(dp4722
sI4539
(dp4723
sI4540
(dp4724
sI4541
(dp4725
sI4542
(dp4726
sI4543
(dp4727
sI4544
(dp4728
sI4545
(dp4729
sI4546
(dp4730
sI4547
(dp4731
sI4548
(dp4732
sI4549
(dp4733
sI4550
(dp4734
sI4551
(dp4735
sI4552
(dp4736
sI4553
(dp4737
sI4554
(dp4738
sI4555
(dp4739
sI4556
(dp4740
sI4557
(dp4741
sI4558
(dp4742
sI4559
(dp4743
sI4560
(dp4744
sI4561
(dp4745
sI4562
(dp4746
sI4563
(dp4747
sI4564
(dp4748
sI4565
(dp4749
sI4566
(dp4750
sI4567
(dp4751
sI4568
(dp4752
sI4569
(dp4753
sI4570
(dp4754
sI4571
(dp4755
sI4572
(dp4756
sI4573
(dp4757
sI4574
(dp4758
sI4575
(dp4759
sI4576
(dp4760
sI4577
(dp4761
sI4578
(dp4762
sI4579
(dp4763
sI4580
(dp4764
sI4581
(dp4765
sI4582
(dp4766
sI4583
(dp4767
sI4584
(dp4768
sI4585
(dp4769
sI4586
(dp4770
sI4587
(dp4771
sI4588
(dp4772
sI4589
(dp4773
sI4590
(dp4774
sI4591
(dp4775
sI4592
(dp4776
sI4593
(dp4777
sI4594
(dp4778
sI4595
(dp4779
sI4596
(dp4780
sI4597
(dp4781
sI4598
(dp4782
sI4599
(dp4783
sI4600
(dp4784
sI4601
(dp4785
sI4602
(dp4786
sI4603
(dp4787
sI4604
(dp4788
sI4605
(dp4789
sI4606
(dp4790
sI4607
(dp4791
sI4608
(dp4792
sI4609
(dp4793
sI4610
(dp4794
sI4611
(dp4795
sI4612
(dp4796
sI4613
(dp4797
sI4614
(dp4798
sI4615
(dp4799
sI4616
(dp4800
sI4617
(dp4801
sI4618
(dp4802
sI4619
(dp4803
sI4620
(dp4804
sI4621
(dp4805
sI4622
(dp4806
sI4623
(dp4807
sI4624
(dp4808
sI4625
(dp4809
sI4626
(dp4810
sI4627
(dp4811
sI4628
(dp4812
sI4629
(dp4813
sI4630
(dp4814
sI4631
(dp4815
sI4632
(dp4816
sI4633
(dp4817
sI4634
(dp4818
sI4635
(dp4819
sI4636
(dp4820
sI4637
(dp4821
sI4638
(dp4822
sI4639
(dp4823
sI4640
(dp4824
sI4641
(dp4825
sI4642
(dp4826
sI4643
(dp4827
sI4644
(dp4828
sI4645
(dp4829
sI4646
(dp4830
sI4647
(dp4831
sI4648
(dp4832
sI4649
(dp4833
sI4650
(dp4834
sI4651
(dp4835
sI4652
(dp4836
sI4653
(dp4837
sI4654
(dp4838
sI4655
(dp4839
sI4656
(dp4840
sI4657
(dp4841
sI4658
(dp4842
sI4659
(dp4843
sI4660
(dp4844
sI4661
(dp4845
sI4662
(dp4846
sI4663
(dp4847
sI4664
(dp4848
sI4665
(dp4849
sI4666
(dp4850
sI4667
(dp4851
sI4668
(dp4852
sI4669
(dp4853
sI4670
(dp4854
sI4671
(dp4855
sI4672
(dp4856
sI4673
(dp4857
sI4674
(dp4858
sI4675
(dp4859
sI4676
(dp4860
sI4677
(dp4861
sI4678
(dp4862
sI4679
(dp4863
sI4680
(dp4864
sI4681
(dp4865
sI4682
(dp4866
sI4683
(dp4867
sI4684
(dp4868
sI4685
(dp4869
sI4686
(dp4870
sI4687
(dp4871
sI4688
(dp4872
sI4689
(dp4873
sI4690
(dp4874
sI4691
(dp4875
sI4692
(dp4876
sI4693
(dp4877
sI4694
(dp4878
sI4695
(dp4879
sI4696
(dp4880
sI4697
(dp4881
sI4698
(dp4882
sI4699
(dp4883
sI4700
(dp4884
sI4701
(dp4885
sI4702
(dp4886
sI4703
(dp4887
sI4704
(dp4888
sI4705
(dp4889
sI4706
(dp4890
sI4707
(dp4891
sI4708
(dp4892
sI4709
(dp4893
sI4710
(dp4894
sI4711
(dp4895
sI4712
(dp4896
sI4713
(dp4897
sI4714
(dp4898
sI4715
(dp4899
sI4716
(dp4900
sI4717
(dp4901
sI4718
(dp4902
sI4719
(dp4903
sI4720
(dp4904
sI4721
(dp4905
sI4722
(dp4906
sI4723
(dp4907
sI4724
(dp4908
sI4725
(dp4909
sI4726
(dp4910
sI4727
(dp4911
sI4728
(dp4912
sI4729
(dp4913
sI4730
(dp4914
sI4731
(dp4915
sI4732
(dp4916
sI4733
(dp4917
sI4734
(dp4918
sI4735
(dp4919
sI4736
(dp4920
sI4737
(dp4921
sI4738
(dp4922
sI4739
(dp4923
sI4740
(dp4924
sI4741
(dp4925
sI4742
(dp4926
sI4743
(dp4927
sI4744
(dp4928
sI4745
(dp4929
sI4746
(dp4930
sI4747
(dp4931
sI4748
(dp4932
sI4749
(dp4933
sI4750
(dp4934
sI4751
(dp4935
sI4752
(dp4936
sI4753
(dp4937
sI4754
(dp4938
sI4755
(dp4939
sI4756
(dp4940
sI4757
(dp4941
sI4758
(dp4942
sI4759
(dp4943
sI4760
(dp4944
sI4761
(dp4945
sI4762
(dp4946
sI4763
(dp4947
sI4764
(dp4948
sI4765
(dp4949
sI4766
(dp4950
sI4767
(dp4951
sI4768
(dp4952
sI4769
(dp4953
sI4770
(dp4954
sI4771
(dp4955
sI4772
(dp4956
sI4773
(dp4957
sI4774
(dp4958
sI4775
(dp4959
sI4776
(dp4960
sI4777
(dp4961
sI4778
(dp4962
sI4779
(dp4963
sI4780
(dp4964
sI4781
(dp4965
sI4782
(dp4966
sI4783
(dp4967
sI4784
(dp4968
sI4785
(dp4969
sI4786
(dp4970
sI4787
(dp4971
sI4788
(dp4972
sI4789
(dp4973
sI4790
(dp4974
sI4791
(dp4975
sI4792
(dp4976
sI4793
(dp4977
sI4794
(dp4978
sI4795
(dp4979
sI4796
(dp4980
sI4797
(dp4981
sI4798
(dp4982
sI4799
(dp4983
sI4800
(dp4984
sI4801
(dp4985
sI4802
(dp4986
sI4803
(dp4987
sI4804
(dp4988
sI4805
(dp4989
sI4806
(dp4990
sI4807
(dp4991
sI4808
(dp4992
sI4809
(dp4993
sI4810
(dp4994
sI4811
(dp4995
sI4812
(dp4996
sI4813
(dp4997
sI4814
(dp4998
sI4815
(dp4999
sI4816
(dp5000
sI4817
(dp5001
sI4818
(dp5002
sI4819
(dp5003
sI4820
(dp5004
sI4821
(dp5005
sI4822
(dp5006
sI4823
(dp5007
sI4824
(dp5008
sI4825
(dp5009
sI4826
(dp5010
sI4827
(dp5011
sI4828
(dp5012
sI4829
(dp5013
sI4830
(dp5014
sI4831
(dp5015
sI4832
(dp5016
sI4833
(dp5017
sI4834
(dp5018
sI4835
(dp5019
sI4836
(dp5020
sI4837
(dp5021
sI4838
(dp5022
sI4839
(dp5023
sI4840
(dp5024
sI4841
(dp5025
sI4842
(dp5026
sI4843
(dp5027
sI4844
(dp5028
sI4845
(dp5029
sI4846
(dp5030
sI4847
(dp5031
sI4848
(dp5032
sI4849
(dp5033
sI4850
(dp5034
sI4851
(dp5035
sI4852
(dp5036
sI4853
(dp5037
sI4854
(dp5038
sI4855
(dp5039
sI4856
(dp5040
sI4857
(dp5041
sI4858
(dp5042
sI4859
(dp5043
sI4860
(dp5044
sI4861
(dp5045
sI4862
(dp5046
sI4863
(dp5047
sI4864
(dp5048
sI4865
(dp5049
sI4866
(dp5050
sI4867
(dp5051
sI4868
(dp5052
sI4869
(dp5053
sI4870
(dp5054
sI4871
(dp5055
sI4872
(dp5056
sI4873
(dp5057
sI4874
(dp5058
sI4875
(dp5059
sI4876
(dp5060
sI4877
(dp5061
sI4878
(dp5062
sI4879
(dp5063
sI4880
(dp5064
sI4881
(dp5065
sI4882
(dp5066
sI4883
(dp5067
sI4884
(dp5068
sI4885
(dp5069
sI4886
(dp5070
sI4887
(dp5071
sI4888
(dp5072
sI4889
(dp5073
sI4890
(dp5074
sI4891
(dp5075
sI4892
(dp5076
sI4893
(dp5077
sI4894
(dp5078
sI4895
(dp5079
sI4896
(dp5080
sI4897
(dp5081
sI4898
(dp5082
sI4899
(dp5083
sI4900
(dp5084
sI4901
(dp5085
sI4902
(dp5086
sI4903
(dp5087
sI4904
(dp5088
sI4905
(dp5089
sI4906
(dp5090
sI4907
(dp5091
sI4908
(dp5092
sI4909
(dp5093
sI4910
(dp5094
sI4911
(dp5095
sI4912
(dp5096
sI4913
(dp5097
sI4914
(dp5098
sI4915
(dp5099
sI4916
(dp5100
sI4917
(dp5101
sI4918
(dp5102
sI4919
(dp5103
sI4920
(dp5104
sI4921
(dp5105
sI4922
(dp5106
sI4923
(dp5107
sI4924
(dp5108
sI4925
(dp5109
sI4926
(dp5110
sI4927
(dp5111
sI4928
(dp5112
sI4929
(dp5113
sI4930
(dp5114
sI4931
(dp5115
sI4932
(dp5116
sI4933
(dp5117
sI4934
(dp5118
sI4935
(dp5119
sI4936
(dp5120
sI4937
(dp5121
sI4938
(dp5122
sI4939
(dp5123
sI4940
(dp5124
sI4941
(dp5125
sI4942
(dp5126
sI4943
(dp5127
sI4944
(dp5128
sI4945
(dp5129
sI4946
(dp5130
sI4947
(dp5131
sI4948
(dp5132
sI4949
(dp5133
sI4950
(dp5134
sI4951
(dp5135
sI4952
(dp5136
sI4953
(dp5137
sI4954
(dp5138
sI4955
(dp5139
sI4956
(dp5140
sI4957
(dp5141
sI4958
(dp5142
sI4959
(dp5143
sI4960
(dp5144
sI4961
(dp5145
sI4962
(dp5146
sI4963
(dp5147
sI4964
(dp5148
sI4965
(dp5149
sI4966
(dp5150
sI4967
(dp5151
sI4968
(dp5152
sI4969
(dp5153
sI4970
(dp5154
sI4971
(dp5155
sI4972
(dp5156
sI4973
(dp5157
sI4974
(dp5158
sI4975
(dp5159
sI4976
(dp5160
sI4977
(dp5161
sI4978
(dp5162
sI4979
(dp5163
sI4980
(dp5164
sI4981
(dp5165
sI4982
(dp5166
sI4983
(dp5167
sI4984
(dp5168
sI4985
(dp5169
sI4986
(dp5170
sI4987
(dp5171
sI4988
(dp5172
sI4989
(dp5173
sI4990
(dp5174
sI4991
(dp5175
sI4992
(dp5176
sI4993
(dp5177
sI4994
(dp5178
sI4995
(dp5179
sI4996
(dp5180
sI4997
(dp5181
sI4998
(dp5182
sI4999
(dp5183
sI5000
(dp5184
sI5001
(dp5185
sI5002
(dp5186
sI5003
(dp5187
sI5004
(dp5188
sI5005
(dp5189
sI5006
(dp5190
sI5007
(dp5191
sI5008
(dp5192
sI5009
(dp5193
sI5010
(dp5194
sI5011
(dp5195
sI5012
(dp5196
sI5013
(dp5197
sI5014
(dp5198
sI5015
(dp5199
sI5016
(dp5200
sI5017
(dp5201
sI5018
(dp5202
sI5019
(dp5203
sI5020
(dp5204
sI5021
(dp5205
sI5022
(dp5206
sI5023
(dp5207
sI5024
(dp5208
sI5025
(dp5209
sI5026
(dp5210
sI5027
(dp5211
sI5028
(dp5212
sI5029
(dp5213
sI5030
(dp5214
sI5031
(dp5215
sI5032
(dp5216
sI5033
(dp5217
sI5034
(dp5218
sI5035
(dp5219
sI5036
(dp5220
sI5037
(dp5221
sI5038
(dp5222
sI5039
(dp5223
sI5040
(dp5224
sI5041
(dp5225
sI5042
(dp5226
sI5043
(dp5227
sI5044
(dp5228
sI5045
(dp5229
sI5046
(dp5230
sI5047
(dp5231
sI5048
(dp5232
sI5049
(dp5233
sI5050
(dp5234
sI5051
(dp5235
sI5052
(dp5236
sI5053
(dp5237
sI5054
(dp5238
sI5055
(dp5239
sI5056
(dp5240
sI5057
(dp5241
sI5058
(dp5242
sI5059
(dp5243
sI5060
(dp5244
sI5061
(dp5245
sI5062
(dp5246
sI5063
(dp5247
sI5064
(dp5248
sI5065
(dp5249
sI5066
(dp5250
sI5067
(dp5251
sI5068
(dp5252
sI5069
(dp5253
sI5070
(dp5254
sI5071
(dp5255
sI5072
(dp5256
sI5073
(dp5257
sI5074
(dp5258
sI5075
(dp5259
sI5076
(dp5260
sI5077
(dp5261
sI5078
(dp5262
sI5079
(dp5263
sI5080
(dp5264
sI5081
(dp5265
sI5082
(dp5266
sI5083
(dp5267
sI5084
(dp5268
sI5085
(dp5269
sI5086
(dp5270
sI5087
(dp5271
sI5088
(dp5272
sI5089
(dp5273
sI5090
(dp5274
sI5091
(dp5275
sI5092
(dp5276
sI5093
(dp5277
sI5094
(dp5278
sI5095
(dp5279
sI5096
(dp5280
sI5097
(dp5281
sI5098
(dp5282
sI5099
(dp5283
sI5100
(dp5284
sI5101
(dp5285
sI5102
(dp5286
sI5103
(dp5287
sI5104
(dp5288
sI5105
(dp5289
sI5106
(dp5290
sI5107
(dp5291
sI5108
(dp5292
sI5109
(dp5293
sI5110
(dp5294
sI5111
(dp5295
sI5112
(dp5296
sI5113
(dp5297
sI5114
(dp5298
sI5115
(dp5299
sI5116
(dp5300
sI5117
(dp5301
sI5118
(dp5302
sI5119
(dp5303
sI5120
(dp5304
sI5121
(dp5305
sI5122
(dp5306
sI5123
(dp5307
sI5124
(dp5308
sI5125
(dp5309
sI5126
(dp5310
sI5127
(dp5311
sI5128
(dp5312
sI5129
(dp5313
sI5130
(dp5314
sI5131
(dp5315
sI5132
(dp5316
sI5133
(dp5317
sI5134
(dp5318
sI5135
(dp5319
sI5136
(dp5320
sI5137
(dp5321
sI5138
(dp5322
sI5139
(dp5323
sI5140
(dp5324
sI5141
(dp5325
sI5142
(dp5326
sI5143
(dp5327
sI5144
(dp5328
sI5145
(dp5329
sI5146
(dp5330
sI5147
(dp5331
sI5148
(dp5332
sI5149
(dp5333
sI5150
(dp5334
sI5151
(dp5335
sI5152
(dp5336
sI5153
(dp5337
sI5154
(dp5338
sI5155
(dp5339
sI5156
(dp5340
sI5157
(dp5341
sI5158
(dp5342
sI5159
(dp5343
sI5160
(dp5344
sI5161
(dp5345
sI5162
(dp5346
sI5163
(dp5347
sI5164
(dp5348
sI5165
(dp5349
sI5166
(dp5350
sI5167
(dp5351
sI5168
(dp5352
sI5169
(dp5353
sI5170
(dp5354
sI5171
(dp5355
sI5172
(dp5356
sI5173
(dp5357
sI5174
(dp5358
sI5175
(dp5359
sI5176
(dp5360
sI5177
(dp5361
sI5178
(dp5362
sI5179
(dp5363
sI5180
(dp5364
sI5181
(dp5365
sI5182
(dp5366
sI5183
(dp5367
sI5184
(dp5368
sI5185
(dp5369
sI5186
(dp5370
sI5187
(dp5371
sI5188
(dp5372
sI5189
(dp5373
sI5190
(dp5374
sI5191
(dp5375
sI5192
(dp5376
sI5193
(dp5377
sI5194
(dp5378
sI5195
(dp5379
sI5196
(dp5380
sI5197
(dp5381
sI5198
(dp5382
sI5199
(dp5383
sI5200
(dp5384
sI5201
(dp5385
sI5202
(dp5386
sI5203
(dp5387
sI5204
(dp5388
sI5205
(dp5389
sI5206
(dp5390
sI5207
(dp5391
sI5208
(dp5392
sI5209
(dp5393
sI5210
(dp5394
sI5211
(dp5395
sI5212
(dp5396
sI5213
(dp5397
sI5214
(dp5398
sI5215
(dp5399
sI5216
(dp5400
sI5217
(dp5401
sI5218
(dp5402
sI5219
(dp5403
sI5220
(dp5404
sI5221
(dp5405
sI5222
(dp5406
sI5223
(dp5407
sI5224
(dp5408
sI5225
(dp5409
sI5226
(dp5410
sI5227
(dp5411
sI5228
(dp5412
sI5229
(dp5413
sI5230
(dp5414
sI5231
(dp5415
sI5232
(dp5416
sI5233
(dp5417
sI5234
(dp5418
sI5235
(dp5419
sI5236
(dp5420
sI5237
(dp5421
sI5238
(dp5422
sI5239
(dp5423
sI5240
(dp5424
sI5241
(dp5425
sI5242
(dp5426
sI5243
(dp5427
sI5244
(dp5428
sI5245
(dp5429
sI5246
(dp5430
sI5247
(dp5431
sI5248
(dp5432
sI5249
(dp5433
sI5250
(dp5434
sI5251
(dp5435
sI5252
(dp5436
sI5253
(dp5437
sI5254
(dp5438
sI5255
(dp5439
sI5256
(dp5440
sI5257
(dp5441
sI5258
(dp5442
sI5259
(dp5443
sI5260
(dp5444
sI5261
(dp5445
sI5262
(dp5446
sI5263
(dp5447
sI5264
(dp5448
sI5265
(dp5449
sI5266
(dp5450
sI5267
(dp5451
sI5268
(dp5452
sI5269
(dp5453
sI5270
(dp5454
sI5271
(dp5455
sI5272
(dp5456
sI5273
(dp5457
sI5274
(dp5458
sI5275
(dp5459
sI5276
(dp5460
sI5277
(dp5461
sI5278
(dp5462
sI5279
(dp5463
sI5280
(dp5464
sI5281
(dp5465
sI5282
(dp5466
sI5283
(dp5467
sI5284
(dp5468
sI5285
(dp5469
sI5286
(dp5470
sI5287
(dp5471
sI5288
(dp5472
sI5289
(dp5473
sI5290
(dp5474
sI5291
(dp5475
sI5292
(dp5476
sI5293
(dp5477
sI5294
(dp5478
sI5295
(dp5479
sI5296
(dp5480
sI5297
(dp5481
sI5298
(dp5482
sI5299
(dp5483
sI5300
(dp5484
sI5301
(dp5485
sI5302
(dp5486
sI5303
(dp5487
sI5304
(dp5488
sI5305
(dp5489
sI5306
(dp5490
sI5307
(dp5491
sI5308
(dp5492
sI5309
(dp5493
sI5310
(dp5494
sI5311
(dp5495
sI5312
(dp5496
sI5313
(dp5497
sI5314
(dp5498
sI5315
(dp5499
sI5316
(dp5500
sI5317
(dp5501
sI5318
(dp5502
sI5319
(dp5503
sI5320
(dp5504
sI5321
(dp5505
sI5322
(dp5506
sI5323
(dp5507
sI5324
(dp5508
sI5325
(dp5509
sI5326
(dp5510
sI5327
(dp5511
sI5328
(dp5512
sI5329
(dp5513
sI5330
(dp5514
sI5331
(dp5515
sI5332
(dp5516
sI5333
(dp5517
sI5334
(dp5518
sI5335
(dp5519
sI5336
(dp5520
sI5337
(dp5521
sI5338
(dp5522
sI5339
(dp5523
sI5340
(dp5524
sI5341
(dp5525
sI5342
(dp5526
sI5343
(dp5527
sI5344
(dp5528
sI5345
(dp5529
sI5346
(dp5530
sI5347
(dp5531
sI5348
(dp5532
sI5349
(dp5533
sI5350
(dp5534
sI5351
(dp5535
sI5352
(dp5536
sI5353
(dp5537
sI5354
(dp5538
sI5355
(dp5539
sI5356
(dp5540
sI5357
(dp5541
sI5358
(dp5542
sI5359
(dp5543
sI5360
(dp5544
sI5361
(dp5545
sI5362
(dp5546
sI5363
(dp5547
sI5364
(dp5548
sI5365
(dp5549
sI5366
(dp5550
sI5367
(dp5551
sI5368
(dp5552
sI5369
(dp5553
sI5370
(dp5554
sI5371
(dp5555
sI5372
(dp5556
sI5373
(dp5557
sI5374
(dp5558
sI5375
(dp5559
sI5376
(dp5560
sI5377
(dp5561
sI5378
(dp5562
sI5379
(dp5563
sI5380
(dp5564
sI5381
(dp5565
sI5382
(dp5566
sI5383
(dp5567
sI5384
(dp5568
sI5385
(dp5569
sI5386
(dp5570
sI5387
(dp5571
sI5388
(dp5572
sI5389
(dp5573
sI5390
(dp5574
sI5391
(dp5575
sI5392
(dp5576
sI5393
(dp5577
sI5394
(dp5578
sI5395
(dp5579
sI5396
(dp5580
sI5397
(dp5581
sI5398
(dp5582
sI5399
(dp5583
sI5400
(dp5584
sI5401
(dp5585
sI5402
(dp5586
sI5403
(dp5587
sI5404
(dp5588
sI5405
(dp5589
sI5406
(dp5590
sI5407
(dp5591
sI5408
(dp5592
sI5409
(dp5593
sI5410
(dp5594
sI5411
(dp5595
sI5412
(dp5596
sI5413
(dp5597
sI5414
(dp5598
sI5415
(dp5599
sI5416
(dp5600
sI5417
(dp5601
sI5418
(dp5602
sI5419
(dp5603
sI5420
(dp5604
sI5421
(dp5605
sI5422
(dp5606
sI5423
(dp5607
sI5424
(dp5608
sI5425
(dp5609
sI5426
(dp5610
sI5427
(dp5611
sI5428
(dp5612
sI5429
(dp5613
sI5430
(dp5614
sI5431
(dp5615
sI5432
(dp5616
sI5433
(dp5617
sI5434
(dp5618
sI5435
(dp5619
sI5436
(dp5620
sI5437
(dp5621
sI5438
(dp5622
sI5439
(dp5623
sI5440
(dp5624
sI5441
(dp5625
sI5442
(dp5626
sI5443
(dp5627
sI5444
(dp5628
sI5445
(dp5629
sI5446
(dp5630
sI5447
(dp5631
sI5448
(dp5632
sI5449
(dp5633
sI5450
(dp5634
sI5451
(dp5635
sI5452
(dp5636
sI5453
(dp5637
sI5454
(dp5638
sI5455
(dp5639
sI5456
(dp5640
sI5457
(dp5641
sI5458
(dp5642
sI5459
(dp5643
sI5460
(dp5644
sI5461
(dp5645
sI5462
(dp5646
sI5463
(dp5647
sI5464
(dp5648
sI5465
(dp5649
sI5466
(dp5650
sI5467
(dp5651
sI5468
(dp5652
sI5469
(dp5653
sI5470
(dp5654
sI5471
(dp5655
sI5472
(dp5656
sI5473
(dp5657
sI5474
(dp5658
sI5475
(dp5659
sI5476
(dp5660
sI5477
(dp5661
sI5478
(dp5662
sI5479
(dp5663
sI5480
(dp5664
sI5481
(dp5665
sI5482
(dp5666
sI5483
(dp5667
sI5484
(dp5668
sI5485
(dp5669
sI5486
(dp5670
sI5487
(dp5671
sI5488
(dp5672
sI5489
(dp5673
sI5490
(dp5674
sI5491
(dp5675
sI5492
(dp5676
sI5493
(dp5677
sI5494
(dp5678
sI5495
(dp5679
sI5496
(dp5680
sI5497
(dp5681
sI5498
(dp5682
sI5499
(dp5683
sI5500
(dp5684
sI5501
(dp5685
sI5502
(dp5686
sI5503
(dp5687
sI5504
(dp5688
sI5505
(dp5689
sI5506
(dp5690
sI5507
(dp5691
sI5508
(dp5692
sI5509
(dp5693
sI5510
(dp5694
sI5511
(dp5695
sI5512
(dp5696
sI5513
(dp5697
sI5514
(dp5698
sI5515
(dp5699
sI5516
(dp5700
sI5517
(dp5701
sI5518
(dp5702
sI5519
(dp5703
sI5520
(dp5704
sI5521
(dp5705
sI5522
(dp5706
sI5523
(dp5707
sI5524
(dp5708
sI5525
(dp5709
sI5526
(dp5710
sI5527
(dp5711
sI5528
(dp5712
sI5529
(dp5713
sI5530
(dp5714
sI5531
(dp5715
sI5532
(dp5716
sI5533
(dp5717
sI5534
(dp5718
sI5535
(dp5719
sI5536
(dp5720
sI5537
(dp5721
sI5538
(dp5722
sI5539
(dp5723
sI5540
(dp5724
sI5541
(dp5725
sI5542
(dp5726
sI5543
(dp5727
sI5544
(dp5728
sI5545
(dp5729
sI5546
(dp5730
sI5547
(dp5731
sI5548
(dp5732
sI5549
(dp5733
sI5550
(dp5734
sI5551
(dp5735
sI5552
(dp5736
sI5553
(dp5737
sI5554
(dp5738
sI5555
(dp5739
sI5556
(dp5740
sI5557
(dp5741
sI5558
(dp5742
sI5559
(dp5743
sI5560
(dp5744
sI5561
(dp5745
sI5562
(dp5746
sI5563
(dp5747
sI5564
(dp5748
sI5565
(dp5749
sI5566
(dp5750
sI5567
(dp5751
sI5568
(dp5752
sI5569
(dp5753
sI5570
(dp5754
sI5571
(dp5755
sI5572
(dp5756
sI5573
(dp5757
sI5574
(dp5758
sI5575
(dp5759
sI5576
(dp5760
sI5577
(dp5761
sI5578
(dp5762
sI5579
(dp5763
sI5580
(dp5764
sI5581
(dp5765
sI5582
(dp5766
sI5583
(dp5767
sI5584
(dp5768
sI5585
(dp5769
sI5586
(dp5770
sI5587
(dp5771
sI5588
(dp5772
sI5589
(dp5773
sI5590
(dp5774
sI5591
(dp5775
sI5592
(dp5776
sI5593
(dp5777
sI5594
(dp5778
sI5595
(dp5779
sI5596
(dp5780
sI5597
(dp5781
sI5598
(dp5782
sI5599
(dp5783
sI5600
(dp5784
sI5601
(dp5785
sI5602
(dp5786
sI5603
(dp5787
sI5604
(dp5788
sI5605
(dp5789
sI5606
(dp5790
sI5607
(dp5791
sI5608
(dp5792
sI5609
(dp5793
sI5610
(dp5794
sI5611
(dp5795
sI5612
(dp5796
sI5613
(dp5797
sI5614
(dp5798
sI5615
(dp5799
sI5616
(dp5800
sI5617
(dp5801
sI5618
(dp5802
sI5619
(dp5803
sI5620
(dp5804
sI5621
(dp5805
sI5622
(dp5806
sI5623
(dp5807
sI5624
(dp5808
sI5625
(dp5809
sI5626
(dp5810
sI5627
(dp5811
sI5628
(dp5812
sI5629
(dp5813
sI5630
(dp5814
sI5631
(dp5815
sI5632
(dp5816
sI5633
(dp5817
sI5634
(dp5818
sI5635
(dp5819
sI5636
(dp5820
sI5637
(dp5821
sI5638
(dp5822
sI5639
(dp5823
sI5640
(dp5824
sI5641
(dp5825
sI5642
(dp5826
sI5643
(dp5827
sI5644
(dp5828
sI5645
(dp5829
sI5646
(dp5830
sI5647
(dp5831
sI5648
(dp5832
sI5649
(dp5833
sI5650
(dp5834
sI5651
(dp5835
sI5652
(dp5836
sI5653
(dp5837
sI5654
(dp5838
sI5655
(dp5839
sI5656
(dp5840
sI5657
(dp5841
sI5658
(dp5842
sI5659
(dp5843
sI5660
(dp5844
sI5661
(dp5845
sI5662
(dp5846
sI5663
(dp5847
sI5664
(dp5848
sI5665
(dp5849
sI5666
(dp5850
sI5667
(dp5851
sI5668
(dp5852
sI5669
(dp5853
sI5670
(dp5854
sI5671
(dp5855
sI5672
(dp5856
sI5673
(dp5857
sI5674
(dp5858
sI5675
(dp5859
sI5676
(dp5860
sI5677
(dp5861
sI5678
(dp5862
sI5679
(dp5863
sI5680
(dp5864
sI5681
(dp5865
sI5682
(dp5866
sI5683
(dp5867
sI5684
(dp5868
sI5685
(dp5869
sI5686
(dp5870
sI5687
(dp5871
sI5688
(dp5872
sI5689
(dp5873
sI5690
(dp5874
sI5691
(dp5875
sI5692
(dp5876
sI5693
(dp5877
sI5694
(dp5878
sI5695
(dp5879
sI5696
(dp5880
sI5697
(dp5881
sI5698
(dp5882
sI5699
(dp5883
sI5700
(dp5884
sI5701
(dp5885
sI5702
(dp5886
sI5703
(dp5887
sI5704
(dp5888
sI5705
(dp5889
sI5706
(dp5890
sI5707
(dp5891
sI5708
(dp5892
sI5709
(dp5893
sI5710
(dp5894
sI5711
(dp5895
sI5712
(dp5896
sI5713
(dp5897
sI5714
(dp5898
sI5715
(dp5899
sI5716
(dp5900
sI5717
(dp5901
sI5718
(dp5902
sI5719
(dp5903
sI5720
(dp5904
sI5721
(dp5905
sI5722
(dp5906
sI5723
(dp5907
sI5724
(dp5908
sI5725
(dp5909
sI5726
(dp5910
sI5727
(dp5911
sI5728
(dp5912
sI5729
(dp5913
sI5730
(dp5914
sI5731
(dp5915
sI5732
(dp5916
sI5733
(dp5917
sI5734
(dp5918
sI5735
(dp5919
sI5736
(dp5920
sI5737
(dp5921
sI5738
(dp5922
sI5739
(dp5923
sI5740
(dp5924
sI5741
(dp5925
sI5742
(dp5926
sI5743
(dp5927
sI5744
(dp5928
sI5745
(dp5929
sI5746
(dp5930
sI5747
(dp5931
sI5748
(dp5932
sI5749
(dp5933
sI5750
(dp5934
sI5751
(dp5935
sI5752
(dp5936
sI5753
(dp5937
sI5754
(dp5938
sI5755
(dp5939
sI5756
(dp5940
sI5757
(dp5941
sI5758
(dp5942
sI5759
(dp5943
sI5760
(dp5944
sI5761
(dp5945
sI5762
(dp5946
sI5763
(dp5947
sI5764
(dp5948
sI5765
(dp5949
sI5766
(dp5950
sI5767
(dp5951
sI5768
(dp5952
sI5769
(dp5953
sI5770
(dp5954
sI5771
(dp5955
sI5772
(dp5956
sI5773
(dp5957
sI5774
(dp5958
sI5775
(dp5959
sI5776
(dp5960
sI5777
(dp5961
sI5778
(dp5962
sI5779
(dp5963
sI5780
(dp5964
sI5781
(dp5965
sI5782
(dp5966
sI5783
(dp5967
sI5784
(dp5968
sI5785
(dp5969
sI5786
(dp5970
sI5787
(dp5971
sI5788
(dp5972
sI5789
(dp5973
sI5790
(dp5974
sI5791
(dp5975
sI5792
(dp5976
sI5793
(dp5977
sI5794
(dp5978
sI5795
(dp5979
sI5796
(dp5980
sI5797
(dp5981
sI5798
(dp5982
sI5799
(dp5983
sI5800
(dp5984
sI5801
(dp5985
sI5802
(dp5986
sI5803
(dp5987
sI5804
(dp5988
sI5805
(dp5989
sI5806
(dp5990
sI5807
(dp5991
sI5808
(dp5992
sI5809
(dp5993
sI5810
(dp5994
sI5811
(dp5995
sI5812
(dp5996
sI5813
(dp5997
sI5814
(dp5998
sI5815
(dp5999
sI5816
(dp6000
sI5817
(dp6001
sI5818
(dp6002
sI5819
(dp6003
sI5820
(dp6004
sI5821
(dp6005
sI5822
(dp6006
sI5823
(dp6007
sI5824
(dp6008
sI5825
(dp6009
sI5826
(dp6010
sI5827
(dp6011
sI5828
(dp6012
sI5829
(dp6013
sI5830
(dp6014
sI5831
(dp6015
sI5832
(dp6016
sI5833
(dp6017
sI5834
(dp6018
sI5835
(dp6019
sI5836
(dp6020
sI5837
(dp6021
sI5838
(dp6022
sI5839
(dp6023
sI5840
(dp6024
sI5841
(dp6025
sI5842
(dp6026
sI5843
(dp6027
sI5844
(dp6028
sI5845
(dp6029
sI5846
(dp6030
sI5847
(dp6031
sI5848
(dp6032
sI5849
(dp6033
sI5850
(dp6034
sI5851
(dp6035
sI5852
(dp6036
sI5853
(dp6037
sI5854
(dp6038
sI5855
(dp6039
sI5856
(dp6040
sI5857
(dp6041
sI5858
(dp6042
sI5859
(dp6043
sI5860
(dp6044
sI5861
(dp6045
sI5862
(dp6046
sI5863
(dp6047
sI5864
(dp6048
sI5865
(dp6049
sI5866
(dp6050
sI5867
(dp6051
sI5868
(dp6052
sI5869
(dp6053
sI5870
(dp6054
sI5871
(dp6055
sI5872
(dp6056
sI5873
(dp6057
sI5874
(dp6058
sI5875
(dp6059
sI5876
(dp6060
sI5877
(dp6061
sI5878
(dp6062
sI5879
(dp6063
sI5880
(dp6064
sI5881
(dp6065
sI5882
(dp6066
sI5883
(dp6067
sI5884
(dp6068
sI5885
(dp6069
sI5886
(dp6070
sI5887
(dp6071
sI5888
(dp6072
sI5889
(dp6073
sI5890
(dp6074
sI5891
(dp6075
sI5892
(dp6076
sI5893
(dp6077
sI5894
(dp6078
sI5895
(dp6079
sI5896
(dp6080
sI5897
(dp6081
sI5898
(dp6082
sI5899
(dp6083
sI5900
(dp6084
sI5901
(dp6085
sI5902
(dp6086
sI5903
(dp6087
sI5904
(dp6088
sI5905
(dp6089
sI5906
(dp6090
sI5907
(dp6091
sI5908
(dp6092
sI5909
(dp6093
sI5910
(dp6094
sI5911
(dp6095
sI5912
(dp6096
sI5913
(dp6097
sI5914
(dp6098
sI5915
(dp6099
sI5916
(dp6100
sI5917
(dp6101
sI5918
(dp6102
sI5919
(dp6103
sI5920
(dp6104
sI5921
(dp6105
sI5922
(dp6106
sI5923
(dp6107
sI5924
(dp6108
sI5925
(dp6109
sI5926
(dp6110
sI5927
(dp6111
sI5928
(dp6112
sI5929
(dp6113
sI5930
(dp6114
sI5931
(dp6115
sI5932
(dp6116
sI5933
(dp6117
sI5934
(dp6118
sI5935
(dp6119
sI5936
(dp6120
sI5937
(dp6121
sI5938
(dp6122
sI5939
(dp6123
sI5940
(dp6124
sI5941
(dp6125
sI5942
(dp6126
sI5943
(dp6127
sI5944
(dp6128
sI5945
(dp6129
sI5946
(dp6130
sI5947
(dp6131
sI5948
(dp6132
sI5949
(dp6133
sI5950
(dp6134
sI5951
(dp6135
sI5952
(dp6136
sI5953
(dp6137
sI5954
(dp6138
sI5955
(dp6139
sI5956
(dp6140
sI5957
(dp6141
sI5958
(dp6142
sI5959
(dp6143
sI5960
(dp6144
sI5961
(dp6145
sI5962
(dp6146
sI5963
(dp6147
sI5964
(dp6148
sI5965
(dp6149
sI5966
(dp6150
sI5967
(dp6151
sI5968
(dp6152
sI5969
(dp6153
sI5970
(dp6154
sI5971
(dp6155
sI5972
(dp6156
sI5973
(dp6157
sI5974
(dp6158
sI5975
(dp6159
sI5976
(dp6160
sI5977
(dp6161
sI5978
(dp6162
sI5979
(dp6163
sI5980
(dp6164
sI5981
(dp6165
sI5982
(dp6166
sI5983
(dp6167
sI5984
(dp6168
sI5985
(dp6169
sI5986
(dp6170
sI5987
(dp6171
sI5988
(dp6172
sI5989
(dp6173
sI5990
(dp6174
sI5991
(dp6175
sI5992
(dp6176
sI5993
(dp6177
sI5994
(dp6178
sI5995
(dp6179
sI5996
(dp6180
sI5997
(dp6181
sI5998
(dp6182
sI5999
(dp6183
sI6000
(dp6184
sI6001
(dp6185
sI6002
(dp6186
sI6003
(dp6187
sI6004
(dp6188
sI6005
(dp6189
sI6006
(dp6190
sI6007
(dp6191
sI6008
(dp6192
sI6009
(dp6193
sI6010
(dp6194
sI6011
(dp6195
sI6012
(dp6196
sI6013
(dp6197
sI6014
(dp6198
sI6015
(dp6199
sI6016
(dp6200
sI6017
(dp6201
sI6018
(dp6202
sI6019
(dp6203
sI6020
(dp6204
sI6021
(dp6205
sI6022
(dp6206
sI6023
(dp6207
sI6024
(dp6208
sI6025
(dp6209
sI6026
(dp6210
sI6027
(dp6211
sI6028
(dp6212
sI6029
(dp6213
sI6030
(dp6214
sI6031
(dp6215
sI6032
(dp6216
sI6033
(dp6217
sI6034
(dp6218
sI6035
(dp6219
sI6036
(dp6220
sI6037
(dp6221
sI6038
(dp6222
sI6039
(dp6223
sI6040
(dp6224
sI6041
(dp6225
sI6042
(dp6226
sI6043
(dp6227
sI6044
(dp6228
sI6045
(dp6229
sI6046
(dp6230
sI6047
(dp6231
sI6048
(dp6232
sI6049
(dp6233
sI6050
(dp6234
sI6051
(dp6235
sI6052
(dp6236
sI6053
(dp6237
sI6054
(dp6238
sI6055
(dp6239
sI6056
(dp6240
sI6057
(dp6241
sI6058
(dp6242
sI6059
(dp6243
sI6060
(dp6244
sI6061
(dp6245
sI6062
(dp6246
sI6063
(dp6247
sI6064
(dp6248
sI6065
(dp6249
sI6066
(dp6250
sI6067
(dp6251
sI6068
(dp6252
sI6069
(dp6253
sI6070
(dp6254
sI6071
(dp6255
sI6072
(dp6256
sI6073
(dp6257
sI6074
(dp6258
sI6075
(dp6259
sI6076
(dp6260
sI6077
(dp6261
sI6078
(dp6262
sI6079
(dp6263
sI6080
(dp6264
sI6081
(dp6265
sI6082
(dp6266
sI6083
(dp6267
sI6084
(dp6268
sI6085
(dp6269
sI6086
(dp6270
sI6087
(dp6271
sI6088
(dp6272
sI6089
(dp6273
sI6090
(dp6274
sI6091
(dp6275
sI6092
(dp6276
sI6093
(dp6277
sI6094
(dp6278
sI6095
(dp6279
sI6096
(dp6280
sI6097
(dp6281
sI6098
(dp6282
sI6099
(dp6283
sI6100
(dp6284
sI6101
(dp6285
sI6102
(dp6286
sI6103
(dp6287
sI6104
(dp6288
sI6105
(dp6289
sI6106
(dp6290
sI6107
(dp6291
sI6108
(dp6292
sI6109
(dp6293
sI6110
(dp6294
sI6111
(dp6295
sI6112
(dp6296
sI6113
(dp6297
sI6114
(dp6298
sI6115
(dp6299
sI6116
(dp6300
sI6117
(dp6301
sI6118
(dp6302
sI6119
(dp6303
sI6120
(dp6304
sI6121
(dp6305
sI6122
(dp6306
sI6123
(dp6307
sI6124
(dp6308
sI6125
(dp6309
sI6126
(dp6310
sI6127
(dp6311
sI6128
(dp6312
sI6129
(dp6313
sI6130
(dp6314
sI6131
(dp6315
sI6132
(dp6316
sI6133
(dp6317
sI6134
(dp6318
sI6135
(dp6319
sI6136
(dp6320
sI6137
(dp6321
sI6138
(dp6322
sI6139
(dp6323
sI6140
(dp6324
sI6141
(dp6325
sI6142
(dp6326
sI6143
(dp6327
sI6144
(dp6328
sI6145
(dp6329
sI6146
(dp6330
sI6147
(dp6331
sI6148
(dp6332
sI6149
(dp6333
sI6150
(dp6334
sI6151
(dp6335
sI6152
(dp6336
sI6153
(dp6337
sI6154
(dp6338
sI6155
(dp6339
sI6156
(dp6340
sI6157
(dp6341
sI6158
(dp6342
sI6159
(dp6343
sI6160
(dp6344
sI6161
(dp6345
sI6162
(dp6346
sI6163
(dp6347
sI6164
(dp6348
sI6165
(dp6349
sI6166
(dp6350
sI6167
(dp6351
sI6168
(dp6352
sI6169
(dp6353
sI6170
(dp6354
sI6171
(dp6355
sI6172
(dp6356
sI6173
(dp6357
sI6174
(dp6358
sI6175
(dp6359
sI6176
(dp6360
sI6177
(dp6361
sI6178
(dp6362
sI6179
(dp6363
sI6180
(dp6364
sI6181
(dp6365
sI6182
(dp6366
sI6183
(dp6367
sI6184
(dp6368
sI6185
(dp6369
sI6186
(dp6370
sI6187
(dp6371
sI6188
(dp6372
sI6189
(dp6373
sI6190
(dp6374
sI6191
(dp6375
sI6192
(dp6376
sI6193
(dp6377
sI6194
(dp6378
sI6195
(dp6379
sI6196
(dp6380
sI6197
(dp6381
sI6198
(dp6382
sI6199
(dp6383
sI6200
(dp6384
sI6201
(dp6385
sI6202
(dp6386
sI6203
(dp6387
sI6204
(dp6388
sI6205
(dp6389
sI6206
(dp6390
sI6207
(dp6391
sI6208
(dp6392
sI6209
(dp6393
sI6210
(dp6394
sI6211
(dp6395
sI6212
(dp6396
sI6213
(dp6397
sI6214
(dp6398
sI6215
(dp6399
sI6216
(dp6400
sI6217
(dp6401
sI6218
(dp6402
sI6219
(dp6403
sI6220
(dp6404
sI6221
(dp6405
sI6222
(dp6406
sI6223
(dp6407
sI6224
(dp6408
sI6225
(dp6409
sI6226
(dp6410
sI6227
(dp6411
sI6228
(dp6412
sI6229
(dp6413
sI6230
(dp6414
sI6231
(dp6415
sI6232
(dp6416
sI6233
(dp6417
sI6234
(dp6418
sI6235
(dp6419
sI6236
(dp6420
sI6237
(dp6421
sI6238
(dp6422
sI6239
(dp6423
sI6240
(dp6424
sI6241
(dp6425
sI6242
(dp6426
sI6243
(dp6427
sI6244
(dp6428
sI6245
(dp6429
sI6246
(dp6430
sI6247
(dp6431
sI6248
(dp6432
sI6249
(dp6433
sI6250
(dp6434
sI6251
(dp6435
sI6252
(dp6436
sI6253
(dp6437
sI6254
(dp6438
sI6255
(dp6439
sI6256
(dp6440
sI6257
(dp6441
sI6258
(dp6442
sI6259
(dp6443
sI6260
(dp6444
sI6261
(dp6445
sI6262
(dp6446
sI6263
(dp6447
sI6264
(dp6448
sI6265
(dp6449
sI6266
(dp6450
sI6267
(dp6451
sI6268
(dp6452
sI6269
(dp6453
sI6270
(dp6454
sI6271
(dp6455
sI6272
(dp6456
sI6273
(dp6457
sI6274
(dp6458
sI6275
(dp6459
sI6276
(dp6460
sI6277
(dp6461
sI6278
(dp6462
sI6279
(dp6463
sI6280
(dp6464
sI6281
(dp6465
sI6282
(dp6466
sI6283
(dp6467
sI6284
(dp6468
sI6285
(dp6469
sI6286
(dp6470
sI6287
(dp6471
sI6288
(dp6472
sI6289
(dp6473
sI6290
(dp6474
sI6291
(dp6475
sI6292
(dp6476
sI6293
(dp6477
sI6294
(dp6478
sI6295
(dp6479
sI6296
(dp6480
sI6297
(dp6481
sI6298
(dp6482
sI6299
(dp6483
sI6300
(dp6484
sI6301
(dp6485
sI6302
(dp6486
sI6303
(dp6487
sI6304
(dp6488
sI6305
(dp6489
sI6306
(dp6490
sI6307
(dp6491
sI6308
(dp6492
sI6309
(dp6493
sI6310
(dp6494
sI6311
(dp6495
sI6312
(dp6496
sI6313
(dp6497
sI6314
(dp6498
sI6315
(dp6499
sI6316
(dp6500
sI6317
(dp6501
sI6318
(dp6502
sI6319
(dp6503
sI6320
(dp6504
sI6321
(dp6505
sI6322
(dp6506
sI6323
(dp6507
sI6324
(dp6508
sI6325
(dp6509
sI6326
(dp6510
sI6327
(dp6511
sI6328
(dp6512
sI6329
(dp6513
sI6330
(dp6514
sI6331
(dp6515
sI6332
(dp6516
sI6333
(dp6517
sI6334
(dp6518
sI6335
(dp6519
sI6336
(dp6520
sI6337
(dp6521
sI6338
(dp6522
sI6339
(dp6523
sI6340
(dp6524
sI6341
(dp6525
sI6342
(dp6526
sI6343
(dp6527
sI6344
(dp6528
sI6345
(dp6529
sI6346
(dp6530
sI6347
(dp6531
sI6348
(dp6532
sI6349
(dp6533
sI6350
(dp6534
sI6351
(dp6535
sI6352
(dp6536
sI6353
(dp6537
sI6354
(dp6538
sI6355
(dp6539
sI6356
(dp6540
sI6357
(dp6541
sI6358
(dp6542
sI6359
(dp6543
sI6360
(dp6544
sI6361
(dp6545
sI6362
(dp6546
sI6363
(dp6547
sI6364
(dp6548
sI6365
(dp6549
sI6366
(dp6550
sI6367
(dp6551
sI6368
(dp6552
sI6369
(dp6553
sI6370
(dp6554
sI6371
(dp6555
sI6372
(dp6556
sI6373
(dp6557
sI6374
(dp6558
sI6375
(dp6559
sI6376
(dp6560
sI6377
(dp6561
sI6378
(dp6562
sI6379
(dp6563
sI6380
(dp6564
sI6381
(dp6565
sI6382
(dp6566
sI6383
(dp6567
sI6384
(dp6568
sI6385
(dp6569
sI6386
(dp6570
sI6387
(dp6571
sI6388
(dp6572
sI6389
(dp6573
sI6390
(dp6574
sI6391
(dp6575
sI6392
(dp6576
sI6393
(dp6577
sI6394
(dp6578
sI6395
(dp6579
sI6396
(dp6580
sI6397
(dp6581
sI6398
(dp6582
sI6399
(dp6583
sI6400
(dp6584
sI6401
(dp6585
sI6402
(dp6586
sI6403
(dp6587
sI6404
(dp6588
sI6405
(dp6589
sI6406
(dp6590
sI6407
(dp6591
sI6408
(dp6592
sI6409
(dp6593
sI6410
(dp6594
sI6411
(dp6595
sI6412
(dp6596
sI6413
(dp6597
sI6414
(dp6598
sI6415
(dp6599
sI6416
(dp6600
sI6417
(dp6601
sI6418
(dp6602
sI6419
(dp6603
sI6420
(dp6604
sI6421
(dp6605
sI6422
(dp6606
sI6423
(dp6607
sI6424
(dp6608
sI6425
(dp6609
sI6426
(dp6610
sI6427
(dp6611
sI6428
(dp6612
sI6429
(dp6613
sI6430
(dp6614
sI6431
(dp6615
sI6432
(dp6616
sI6433
(dp6617
sI6434
(dp6618
sI6435
(dp6619
sI6436
(dp6620
sI6437
(dp6621
sI6438
(dp6622
sI6439
(dp6623
sI6440
(dp6624
sI6441
(dp6625
sI6442
(dp6626
sI6443
(dp6627
sI6444
(dp6628
sI6445
(dp6629
sI6446
(dp6630
sI6447
(dp6631
sI6448
(dp6632
sI6449
(dp6633
sI6450
(dp6634
sI6451
(dp6635
sI6452
(dp6636
sI6453
(dp6637
sI6454
(dp6638
sI6455
(dp6639
sI6456
(dp6640
sI6457
(dp6641
sI6458
(dp6642
sI6459
(dp6643
sI6460
(dp6644
sI6461
(dp6645
sI6462
(dp6646
sI6463
(dp6647
sI6464
(dp6648
sI6465
(dp6649
sI6466
(dp6650
sI6467
(dp6651
sI6468
(dp6652
sI6469
(dp6653
sI6470
(dp6654
sI6471
(dp6655
sI6472
(dp6656
sI6473
(dp6657
sI6474
(dp6658
sI6475
(dp6659
sI6476
(dp6660
sI6477
(dp6661
sI6478
(dp6662
sI6479
(dp6663
sI6480
(dp6664
sI6481
(dp6665
sI6482
(dp6666
sI6483
(dp6667
sI6484
(dp6668
sI6485
(dp6669
sI6486
(dp6670
sI6487
(dp6671
sI6488
(dp6672
sI6489
(dp6673
sI6490
(dp6674
sI6491
(dp6675
sI6492
(dp6676
sI6493
(dp6677
sI6494
(dp6678
sI6495
(dp6679
sI6496
(dp6680
sI6497
(dp6681
sI6498
(dp6682
sI6499
(dp6683
sI6500
(dp6684
sI6501
(dp6685
sI6502
(dp6686
sI6503
(dp6687
sI6504
(dp6688
sI6505
(dp6689
sI6506
(dp6690
sI6507
(dp6691
sI6508
(dp6692
sI6509
(dp6693
sI6510
(dp6694
sI6511
(dp6695
sI6512
(dp6696
sI6513
(dp6697
sI6514
(dp6698
sI6515
(dp6699
sI6516
(dp6700
sI6517
(dp6701
sI6518
(dp6702
sI6519
(dp6703
sI6520
(dp6704
sI6521
(dp6705
sI6522
(dp6706
sI6523
(dp6707
sI6524
(dp6708
sI6525
(dp6709
sI6526
(dp6710
sI6527
(dp6711
sI6528
(dp6712
sI6529
(dp6713
sI6530
(dp6714
sI6531
(dp6715
sI6532
(dp6716
sI6533
(dp6717
sI6534
(dp6718
sI6535
(dp6719
sI6536
(dp6720
sI6537
(dp6721
sI6538
(dp6722
sI6539
(dp6723
sI6540
(dp6724
sI6541
(dp6725
sI6542
(dp6726
sI6543
(dp6727
sI6544
(dp6728
sI6545
(dp6729
sI6546
(dp6730
sI6547
(dp6731
sI6548
(dp6732
sI6549
(dp6733
sI6550
(dp6734
sI6551
(dp6735
sI6552
(dp6736
sI6553
(dp6737
sI6554
(dp6738
sI6555
(dp6739
sI6556
(dp6740
sI6557
(dp6741
sI6558
(dp6742
sI6559
(dp6743
sI6560
(dp6744
sI6561
(dp6745
sI6562
(dp6746
sI6563
(dp6747
sI6564
(dp6748
sI6565
(dp6749
sI6566
(dp6750
sI6567
(dp6751
sI6568
(dp6752
sI6569
(dp6753
sI6570
(dp6754
sI6571
(dp6755
sI6572
(dp6756
sI6573
(dp6757
sI6574
(dp6758
sI6575
(dp6759
sI6576
(dp6760
sI6577
(dp6761
sI6578
(dp6762
sI6579
(dp6763
sI6580
(dp6764
sI6581
(dp6765
sI6582
(dp6766
sI6583
(dp6767
sI6584
(dp6768
sI6585
(dp6769
sI6586
(dp6770
sI6587
(dp6771
sI6588
(dp6772
sI6589
(dp6773
sI6590
(dp6774
sI6591
(dp6775
sI6592
(dp6776
sI6593
(dp6777
sI6594
(dp6778
sI6595
(dp6779
sI6596
(dp6780
sI6597
(dp6781
sI6598
(dp6782
sI6599
(dp6783
sI6600
(dp6784
sI6601
(dp6785
sI6602
(dp6786
sI6603
(dp6787
sI6604
(dp6788
sI6605
(dp6789
sI6606
(dp6790
sI6607
(dp6791
sI6608
(dp6792
sI6609
(dp6793
sI6610
(dp6794
sI6611
(dp6795
sI6612
(dp6796
sI6613
(dp6797
sI6614
(dp6798
sI6615
(dp6799
sI6616
(dp6800
sI6617
(dp6801
sI6618
(dp6802
sI6619
(dp6803
sI6620
(dp6804
sI6621
(dp6805
sI6622
(dp6806
sI6623
(dp6807
sI6624
(dp6808
sI6625
(dp6809
sI6626
(dp6810
sI6627
(dp6811
sI6628
(dp6812
sI6629
(dp6813
sI6630
(dp6814
sI6631
(dp6815
sI6632
(dp6816
sI6633
(dp6817
sI6634
(dp6818
sI6635
(dp6819
sI6636
(dp6820
sI6637
(dp6821
sI6638
(dp6822
sI6639
(dp6823
sI6640
(dp6824
sI6641
(dp6825
sI6642
(dp6826
sI6643
(dp6827
sI6644
(dp6828
sI6645
(dp6829
sI6646
(dp6830
sI6647
(dp6831
sI6648
(dp6832
sI6649
(dp6833
sI6650
(dp6834
sI6651
(dp6835
sI6652
(dp6836
sI6653
(dp6837
sI6654
(dp6838
sI6655
(dp6839
sI6656
(dp6840
sI6657
(dp6841
sI6658
(dp6842
sI6659
(dp6843
sI6660
(dp6844
sI6661
(dp6845
sI6662
(dp6846
sI6663
(dp6847
sI6664
(dp6848
sI6665
(dp6849
sI6666
(dp6850
sI6667
(dp6851
sI6668
(dp6852
sI6669
(dp6853
sI6670
(dp6854
sI6671
(dp6855
sI6672
(dp6856
sI6673
(dp6857
sI6674
(dp6858
sI6675
(dp6859
sI6676
(dp6860
sI6677
(dp6861
sI6678
(dp6862
sI6679
(dp6863
sI6680
(dp6864
sI6681
(dp6865
sI6682
(dp6866
sI6683
(dp6867
sI6684
(dp6868
sI6685
(dp6869
sI6686
(dp6870
sI6687
(dp6871
sI6688
(dp6872
sI6689
(dp6873
sI6690
(dp6874
sI6691
(dp6875
sI6692
(dp6876
sI6693
(dp6877
sI6694
(dp6878
sI6695
(dp6879
sI6696
(dp6880
sI6697
(dp6881
sI6698
(dp6882
sI6699
(dp6883
sI6700
(dp6884
sI6701
(dp6885
sI6702
(dp6886
sI6703
(dp6887
sI6704
(dp6888
sI6705
(dp6889
sI6706
(dp6890
sI6707
(dp6891
sI6708
(dp6892
sI6709
(dp6893
sI6710
(dp6894
sI6711
(dp6895
sI6712
(dp6896
sI6713
(dp6897
sI6714
(dp6898
sI6715
(dp6899
sI6716
(dp6900
sI6717
(dp6901
sI6718
(dp6902
sI6719
(dp6903
sI6720
(dp6904
sI6721
(dp6905
sI6722
(dp6906
sI6723
(dp6907
sI6724
(dp6908
sI6725
(dp6909
sI6726
(dp6910
sI6727
(dp6911
sI6728
(dp6912
sI6729
(dp6913
sI6730
(dp6914
sI6731
(dp6915
sI6732
(dp6916
sI6733
(dp6917
sI6734
(dp6918
sI6735
(dp6919
sI6736
(dp6920
sI6737
(dp6921
sI6738
(dp6922
sI6739
(dp6923
sI6740
(dp6924
sI6741
(dp6925
sI6742
(dp6926
sI6743
(dp6927
sI6744
(dp6928
sI6745
(dp6929
sI6746
(dp6930
sI6747
(dp6931
sI6748
(dp6932
sI6749
(dp6933
sI6750
(dp6934
sI6751
(dp6935
sI6752
(dp6936
sI6753
(dp6937
sI6754
(dp6938
sI6755
(dp6939
sI6756
(dp6940
sI6757
(dp6941
sI6758
(dp6942
sI6759
(dp6943
sI6760
(dp6944
sI6761
(dp6945
sI6762
(dp6946
sI6763
(dp6947
sI6764
(dp6948
sI6765
(dp6949
sI6766
(dp6950
sI6767
(dp6951
sI6768
(dp6952
sI6769
(dp6953
sI6770
(dp6954
sI6771
(dp6955
sI6772
(dp6956
sI6773
(dp6957
sI6774
(dp6958
sI6775
(dp6959
sI6776
(dp6960
sI6777
(dp6961
sI6778
(dp6962
sI6779
(dp6963
sI6780
(dp6964
sI6781
(dp6965
sI6782
(dp6966
sI6783
(dp6967
sI6784
(dp6968
sI6785
(dp6969
sI6786
(dp6970
sI6787
(dp6971
sI6788
(dp6972
sI6789
(dp6973
sI6790
(dp6974
sI6791
(dp6975
sI6792
(dp6976
sI6793
(dp6977
sI6794
(dp6978
sI6795
(dp6979
sI6796
(dp6980
sI6797
(dp6981
sI6798
(dp6982
sI6799
(dp6983
sI6800
(dp6984
sI6801
(dp6985
sI6802
(dp6986
sI6803
(dp6987
sI6804
(dp6988
sI6805
(dp6989
sI6806
(dp6990
sI6807
(dp6991
sI6808
(dp6992
sI6809
(dp6993
sI6810
(dp6994
sI6811
(dp6995
sI6812
(dp6996
sI6813
(dp6997
sI6814
(dp6998
sI6815
(dp6999
sI6816
(dp7000
sI6817
(dp7001
sI6818
(dp7002
sI6819
(dp7003
sI6820
(dp7004
sI6821
(dp7005
sI6822
(dp7006
sI6823
(dp7007
sI6824
(dp7008
sI6825
(dp7009
sI6826
(dp7010
sI6827
(dp7011
sI6828
(dp7012
sI6829
(dp7013
sI6830
(dp7014
sI6831
(dp7015
sI6832
(dp7016
sI6833
(dp7017
sI6834
(dp7018
sI6835
(dp7019
sI6836
(dp7020
sI6837
(dp7021
sI6838
(dp7022
sI6839
(dp7023
sI6840
(dp7024
sI6841
(dp7025
sI6842
(dp7026
sI6843
(dp7027
sI6844
(dp7028
sI6845
(dp7029
sI6846
(dp7030
sI6847
(dp7031
sI6848
(dp7032
sI6849
(dp7033
sI6850
(dp7034
sI6851
(dp7035
sI6852
(dp7036
sI6853
(dp7037
sI6854
(dp7038
sI6855
(dp7039
sI6856
(dp7040
sI6857
(dp7041
sI6858
(dp7042
sI6859
(dp7043
sI6860
(dp7044
sI6861
(dp7045
sI6862
(dp7046
sI6863
(dp7047
sI6864
(dp7048
sI6865
(dp7049
sI6866
(dp7050
sI6867
(dp7051
sI6868
(dp7052
sI6869
(dp7053
sI6870
(dp7054
sI6871
(dp7055
sI6872
(dp7056
sI6873
(dp7057
sI6874
(dp7058
sI6875
(dp7059
sI6876
(dp7060
sI6877
(dp7061
sI6878
(dp7062
sI6879
(dp7063
sI6880
(dp7064
sI6881
(dp7065
sI6882
(dp7066
sI6883
(dp7067
sI6884
(dp7068
sI6885
(dp7069
sI6886
(dp7070
sI6887
(dp7071
sI6888
(dp7072
sI6889
(dp7073
sI6890
(dp7074
sI6891
(dp7075
sI6892
(dp7076
sI6893
(dp7077
sI6894
(dp7078
sI6895
(dp7079
sI6896
(dp7080
sI6897
(dp7081
sI6898
(dp7082
sI6899
(dp7083
sI6900
(dp7084
sI6901
(dp7085
sI6902
(dp7086
sI6903
(dp7087
sI6904
(dp7088
sI6905
(dp7089
sI6906
(dp7090
sI6907
(dp7091
sI6908
(dp7092
sI6909
(dp7093
sI6910
(dp7094
sI6911
(dp7095
sI6912
(dp7096
sI6913
(dp7097
sI6914
(dp7098
sI6915
(dp7099
sI6916
(dp7100
sI6917
(dp7101
sI6918
(dp7102
sI6919
(dp7103
sI6920
(dp7104
sI6921
(dp7105
sI6922
(dp7106
sI6923
(dp7107
sI6924
(dp7108
sI6925
(dp7109
sI6926
(dp7110
sI6927
(dp7111
sI6928
(dp7112
sI6929
(dp7113
sI6930
(dp7114
sI6931
(dp7115
sI6932
(dp7116
sI6933
(dp7117
sI6934
(dp7118
sI6935
(dp7119
sI6936
(dp7120
sI6937
(dp7121
sI6938
(dp7122
sI6939
(dp7123
sI6940
(dp7124
sI6941
(dp7125
sI6942
(dp7126
sI6943
(dp7127
sI6944
(dp7128
sI6945
(dp7129
sI6946
(dp7130
sI6947
(dp7131
sI6948
(dp7132
sI6949
(dp7133
sI6950
(dp7134
sI6951
(dp7135
sI6952
(dp7136
sI6953
(dp7137
sI6954
(dp7138
sI6955
(dp7139
sI6956
(dp7140
sI6957
(dp7141
sI6958
(dp7142
sI6959
(dp7143
sI6960
(dp7144
sI6961
(dp7145
sI6962
(dp7146
sI6963
(dp7147
sI6964
(dp7148
sI6965
(dp7149
sI6966
(dp7150
sI6967
(dp7151
sI6968
(dp7152
sI6969
(dp7153
sI6970
(dp7154
sI6971
(dp7155
sI6972
(dp7156
sI6973
(dp7157
sI6974
(dp7158
sI6975
(dp7159
sI6976
(dp7160
sI6977
(dp7161
sI6978
(dp7162
sI6979
(dp7163
sI6980
(dp7164
sI6981
(dp7165
sI6982
(dp7166
sI6983
(dp7167
sI6984
(dp7168
sI6985
(dp7169
sI6986
(dp7170
sI6987
(dp7171
sI6988
(dp7172
sI6989
(dp7173
sI6990
(dp7174
sI6991
(dp7175
sI6992
(dp7176
sI6993
(dp7177
sI6994
(dp7178
sI6995
(dp7179
sI6996
(dp7180
sI6997
(dp7181
sI6998
(dp7182
sI6999
(dp7183
sI7000
(dp7184
sI7001
(dp7185
sI7002
(dp7186
sI7003
(dp7187
sI7004
(dp7188
sI7005
(dp7189
sI7006
(dp7190
sI7007
(dp7191
sI7008
(dp7192
sI7009
(dp7193
sI7010
(dp7194
sI7011
(dp7195
sI7012
(dp7196
sI7013
(dp7197
sI7014
(dp7198
sI7015
(dp7199
sI7016
(dp7200
sI7017
(dp7201
sI7018
(dp7202
sI7019
(dp7203
sI7020
(dp7204
sI7021
(dp7205
sI7022
(dp7206
sI7023
(dp7207
sI7024
(dp7208
sI7025
(dp7209
sI7026
(dp7210
sI7027
(dp7211
sI7028
(dp7212
sI7029
(dp7213
sI7030
(dp7214
sI7031
(dp7215
sI7032
(dp7216
sI7033
(dp7217
sI7034
(dp7218
sI7035
(dp7219
sI7036
(dp7220
sI7037
(dp7221
sI7038
(dp7222
sI7039
(dp7223
sI7040
(dp7224
sI7041
(dp7225
sI7042
(dp7226
sI7043
(dp7227
sI7044
(dp7228
sI7045
(dp7229
sI7046
(dp7230
sI7047
(dp7231
sI7048
(dp7232
sI7049
(dp7233
sI7050
(dp7234
sI7051
(dp7235
sI7052
(dp7236
sI7053
(dp7237
sI7054
(dp7238
sI7055
(dp7239
sI7056
(dp7240
sI7057
(dp7241
sI7058
(dp7242
sI7059
(dp7243
sI7060
(dp7244
sI7061
(dp7245
sI7062
(dp7246
sI7063
(dp7247
sI7064
(dp7248
sI7065
(dp7249
sI7066
(dp7250
sI7067
(dp7251
sI7068
(dp7252
sI7069
(dp7253
sI7070
(dp7254
sI7071
(dp7255
sI7072
(dp7256
sI7073
(dp7257
sI7074
(dp7258
sI7075
(dp7259
sI7076
(dp7260
sI7077
(dp7261
sI7078
(dp7262
sI7079
(dp7263
sI7080
(dp7264
sI7081
(dp7265
sI7082
(dp7266
sI7083
(dp7267
sI7084
(dp7268
sI7085
(dp7269
sI7086
(dp7270
sI7087
(dp7271
sI7088
(dp7272
sI7089
(dp7273
sI7090
(dp7274
sI7091
(dp7275
sI7092
(dp7276
sI7093
(dp7277
sI7094
(dp7278
sI7095
(dp7279
sI7096
(dp7280
sI7097
(dp7281
sI7098
(dp7282
sI7099
(dp7283
sI7100
(dp7284
sI7101
(dp7285
sI7102
(dp7286
sI7103
(dp7287
sI7104
(dp7288
sI7105
(dp7289
sI7106
(dp7290
sI7107
(dp7291
sI7108
(dp7292
sI7109
(dp7293
sI7110
(dp7294
sI7111
(dp7295
sI7112
(dp7296
sI7113
(dp7297
sI7114
(dp7298
sI7115
(dp7299
sI7116
(dp7300
sI7117
(dp7301
sI7118
(dp7302
sI7119
(dp7303
sI7120
(dp7304
sI7121
(dp7305
sI7122
(dp7306
sI7123
(dp7307
sI7124
(dp7308
sI7125
(dp7309
sI7126
(dp7310
sI7127
(dp7311
sI7128
(dp7312
sI7129
(dp7313
sI7130
(dp7314
sI7131
(dp7315
sI7132
(dp7316
sI7133
(dp7317
sI7134
(dp7318
sI7135
(dp7319
sI7136
(dp7320
sI7137
(dp7321
sI7138
(dp7322
sI7139
(dp7323
sI7140
(dp7324
sI7141
(dp7325
sI7142
(dp7326
sI7143
(dp7327
sI7144
(dp7328
sI7145
(dp7329
sI7146
(dp7330
sI7147
(dp7331
sI7148
(dp7332
sI7149
(dp7333
sI7150
(dp7334
sI7151
(dp7335
sI7152
(dp7336
sI7153
(dp7337
sI7154
(dp7338
sI7155
(dp7339
sI7156
(dp7340
sI7157
(dp7341
sI7158
(dp7342
sI7159
(dp7343
sI7160
(dp7344
sI7161
(dp7345
sI7162
(dp7346
sI7163
(dp7347
sI7164
(dp7348
sI7165
(dp7349
sI7166
(dp7350
sI7167
(dp7351
sI7168
(dp7352
sI7169
(dp7353
sI7170
(dp7354
sI7171
(dp7355
sI7172
(dp7356
sI7173
(dp7357
sI7174
(dp7358
sI7175
(dp7359
sI7176
(dp7360
sI7177
(dp7361
sI7178
(dp7362
sI7179
(dp7363
sI7180
(dp7364
sI7181
(dp7365
sI7182
(dp7366
sI7183
(dp7367
sI7184
(dp7368
sI7185
(dp7369
sI7186
(dp7370
sI7187
(dp7371
sI7188
(dp7372
sI7189
(dp7373
sI7190
(dp7374
sI7191
(dp7375
sI7192
(dp7376
sI7193
(dp7377
sI7194
(dp7378
sI7195
(dp7379
sI7196
(dp7380
sI7197
(dp7381
sI7198
(dp7382
sI7199
(dp7383
sI7200
(dp7384
sI7201
(dp7385
sI7202
(dp7386
sI7203
(dp7387
sI7204
(dp7388
sI7205
(dp7389
sI7206
(dp7390
sI7207
(dp7391
sI7208
(dp7392
sI7209
(dp7393
sI7210
(dp7394
sI7211
(dp7395
sI7212
(dp7396
sI7213
(dp7397
sI7214
(dp7398
sI7215
(dp7399
sI7216
(dp7400
sI7217
(dp7401
sI7218
(dp7402
sI7219
(dp7403
sI7220
(dp7404
sI7221
(dp7405
sI7222
(dp7406
sI7223
(dp7407
sI7224
(dp7408
sI7225
(dp7409
sI7226
(dp7410
sI7227
(dp7411
sI7228
(dp7412
sI7229
(dp7413
sI7230
(dp7414
sI7231
(dp7415
sI7232
(dp7416
sI7233
(dp7417
sI7234
(dp7418
sI7235
(dp7419
sI7236
(dp7420
sI7237
(dp7421
sI7238
(dp7422
sI7239
(dp7423
sI7240
(dp7424
sI7241
(dp7425
sI7242
(dp7426
sI7243
(dp7427
sI7244
(dp7428
sI7245
(dp7429
sI7246
(dp7430
sI7247
(dp7431
sI7248
(dp7432
sI7249
(dp7433
sI7250
(dp7434
sI7251
(dp7435
sI7252
(dp7436
sI7253
(dp7437
sI7254
(dp7438
sI7255
(dp7439
sI7256
(dp7440
sI7257
(dp7441
sI7258
(dp7442
sI7259
(dp7443
sI7260
(dp7444
sI7261
(dp7445
sI7262
(dp7446
sI7263
(dp7447
sI7264
(dp7448
sI7265
(dp7449
sI7266
(dp7450
sI7267
(dp7451
sI7268
(dp7452
sI7269
(dp7453
sI7270
(dp7454
sI7271
(dp7455
sI7272
(dp7456
sI7273
(dp7457
sI7274
(dp7458
sI7275
(dp7459
sI7276
(dp7460
sI7277
(dp7461
sI7278
(dp7462
sI7279
(dp7463
sI7280
(dp7464
sI7281
(dp7465
sI7282
(dp7466
sI7283
(dp7467
sI7284
(dp7468
sI7285
(dp7469
sI7286
(dp7470
sI7287
(dp7471
sI7288
(dp7472
sI7289
(dp7473
sI7290
(dp7474
sI7291
(dp7475
sI7292
(dp7476
sI7293
(dp7477
sI7294
(dp7478
sI7295
(dp7479
sI7296
(dp7480
sI7297
(dp7481
sI7298
(dp7482
sI7299
(dp7483
sI7300
(dp7484
sI7301
(dp7485
sI7302
(dp7486
sI7303
(dp7487
sI7304
(dp7488
sI7305
(dp7489
sI7306
(dp7490
sI7307
(dp7491
sI7308
(dp7492
sI7309
(dp7493
sI7310
(dp7494
sI7311
(dp7495
sI7312
(dp7496
sI7313
(dp7497
sI7314
(dp7498
sI7315
(dp7499
sI7316
(dp7500
sI7317
(dp7501
sI7318
(dp7502
sI7319
(dp7503
sI7320
(dp7504
sI7321
(dp7505
sI7322
(dp7506
sI7323
(dp7507
sI7324
(dp7508
sI7325
(dp7509
sI7326
(dp7510
sI7327
(dp7511
sI7328
(dp7512
sI7329
(dp7513
sI7330
(dp7514
sI7331
(dp7515
sI7332
(dp7516
sI7333
(dp7517
sI7334
(dp7518
sI7335
(dp7519
sI7336
(dp7520
sI7337
(dp7521
sI7338
(dp7522
sI7339
(dp7523
sI7340
(dp7524
sI7341
(dp7525
sI7342
(dp7526
sI7343
(dp7527
sI7344
(dp7528
sI7345
(dp7529
sI7346
(dp7530
sI7347
(dp7531
sI7348
(dp7532
sI7349
(dp7533
sI7350
(dp7534
sI7351
(dp7535
sI7352
(dp7536
sI7353
(dp7537
sI7354
(dp7538
sI7355
(dp7539
sI7356
(dp7540
sI7357
(dp7541
sI7358
(dp7542
sI7359
(dp7543
sI7360
(dp7544
sI7361
(dp7545
sI7362
(dp7546
sI7363
(dp7547
sI7364
(dp7548
sI7365
(dp7549
sI7366
(dp7550
sI7367
(dp7551
sI7368
(dp7552
sI7369
(dp7553
sI7370
(dp7554
sI7371
(dp7555
sI7372
(dp7556
sI7373
(dp7557
sI7374
(dp7558
sI7375
(dp7559
sI7376
(dp7560
sI7377
(dp7561
sI7378
(dp7562
sI7379
(dp7563
sI7380
(dp7564
sI7381
(dp7565
sI7382
(dp7566
sI7383
(dp7567
sI7384
(dp7568
sI7385
(dp7569
sI7386
(dp7570
sI7387
(dp7571
sI7388
(dp7572
sI7389
(dp7573
sI7390
(dp7574
sI7391
(dp7575
sI7392
(dp7576
sI7393
(dp7577
sI7394
(dp7578
sI7395
(dp7579
sI7396
(dp7580
sI7397
(dp7581
sI7398
(dp7582
sI7399
(dp7583
sI7400
(dp7584
sI7401
(dp7585
sI7402
(dp7586
sI7403
(dp7587
sI7404
(dp7588
sI7405
(dp7589
sI7406
(dp7590
sI7407
(dp7591
sI7408
(dp7592
sI7409
(dp7593
sI7410
(dp7594
sI7411
(dp7595
sI7412
(dp7596
sI7413
(dp7597
sI7414
(dp7598
sI7415
(dp7599
sI7416
(dp7600
sI7417
(dp7601
sI7418
(dp7602
sI7419
(dp7603
sI7420
(dp7604
sI7421
(dp7605
sI7422
(dp7606
sI7423
(dp7607
sI7424
(dp7608
sI7425
(dp7609
sI7426
(dp7610
sI7427
(dp7611
sI7428
(dp7612
sI7429
(dp7613
sI7430
(dp7614
sI7431
(dp7615
sI7432
(dp7616
sI7433
(dp7617
sI7434
(dp7618
sI7435
(dp7619
sI7436
(dp7620
sI7437
(dp7621
sI7438
(dp7622
sI7439
(dp7623
sI7440
(dp7624
sI7441
(dp7625
sI7442
(dp7626
sI7443
(dp7627
sI7444
(dp7628
sI7445
(dp7629
sI7446
(dp7630
sI7447
(dp7631
sI7448
(dp7632
sI7449
(dp7633
sI7450
(dp7634
sI7451
(dp7635
sI7452
(dp7636
sI7453
(dp7637
sI7454
(dp7638
sI7455
(dp7639
sI7456
(dp7640
sI7457
(dp7641
sI7458
(dp7642
sI7459
(dp7643
sI7460
(dp7644
sI7461
(dp7645
sI7462
(dp7646
sI7463
(dp7647
sI7464
(dp7648
sI7465
(dp7649
sI7466
(dp7650
sI7467
(dp7651
sI7468
(dp7652
sI7469
(dp7653
sI7470
(dp7654
sI7471
(dp7655
sI7472
(dp7656
sI7473
(dp7657
sI7474
(dp7658
sI7475
(dp7659
sI7476
(dp7660
sI7477
(dp7661
sI7478
(dp7662
sI7479
(dp7663
sI7480
(dp7664
sI7481
(dp7665
sI7482
(dp7666
sI7483
(dp7667
sI7484
(dp7668
sI7485
(dp7669
sI7486
(dp7670
sI7487
(dp7671
sI7488
(dp7672
sI7489
(dp7673
sI7490
(dp7674
sI7491
(dp7675
sI7492
(dp7676
sI7493
(dp7677
sI7494
(dp7678
sI7495
(dp7679
sI7496
(dp7680
sI7497
(dp7681
sI7498
(dp7682
sI7499
(dp7683
sI7500
(dp7684
sI7501
(dp7685
sI7502
(dp7686
sI7503
(dp7687
sI7504
(dp7688
sI7505
(dp7689
sI7506
(dp7690
sI7507
(dp7691
sI7508
(dp7692
sI7509
(dp7693
sI7510
(dp7694
sI7511
(dp7695
sI7512
(dp7696
sI7513
(dp7697
sI7514
(dp7698
sI7515
(dp7699
sI7516
(dp7700
sI7517
(dp7701
sI7518
(dp7702
sI7519
(dp7703
sI7520
(dp7704
sI7521
(dp7705
sI7522
(dp7706
sI7523
(dp7707
sI7524
(dp7708
sI7525
(dp7709
sI7526
(dp7710
sI7527
(dp7711
sI7528
(dp7712
sI7529
(dp7713
sI7530
(dp7714
sI7531
(dp7715
sI7532
(dp7716
sI7533
(dp7717
sI7534
(dp7718
sI7535
(dp7719
sI7536
(dp7720
sI7537
(dp7721
sI7538
(dp7722
sI7539
(dp7723
sI7540
(dp7724
sI7541
(dp7725
sI7542
(dp7726
sI7543
(dp7727
sI7544
(dp7728
sI7545
(dp7729
sI7546
(dp7730
sI7547
(dp7731
sI7548
(dp7732
sI7549
(dp7733
sI7550
(dp7734
sI7551
(dp7735
sI7552
(dp7736
sI7553
(dp7737
sI7554
(dp7738
sI7555
(dp7739
sI7556
(dp7740
sI7557
(dp7741
sI7558
(dp7742
sI7559
(dp7743
sI7560
(dp7744
sI7561
(dp7745
sI7562
(dp7746
sI7563
(dp7747
sI7564
(dp7748
sI7565
(dp7749
sI7566
(dp7750
sI7567
(dp7751
sI7568
(dp7752
sI7569
(dp7753
sI7570
(dp7754
sI7571
(dp7755
sI7572
(dp7756
sI7573
(dp7757
sI7574
(dp7758
sI7575
(dp7759
sI7576
(dp7760
sI7577
(dp7761
sI7578
(dp7762
sI7579
(dp7763
sI7580
(dp7764
sI7581
(dp7765
sI7582
(dp7766
sI7583
(dp7767
sI7584
(dp7768
sI7585
(dp7769
sI7586
(dp7770
sI7587
(dp7771
sI7588
(dp7772
sI7589
(dp7773
sI7590
(dp7774
sI7591
(dp7775
sI7592
(dp7776
sI7593
(dp7777
sI7594
(dp7778
sI7595
(dp7779
sI7596
(dp7780
sI7597
(dp7781
sI7598
(dp7782
sI7599
(dp7783
sI7600
(dp7784
sI7601
(dp7785
sI7602
(dp7786
sI7603
(dp7787
sI7604
(dp7788
sI7605
(dp7789
sI7606
(dp7790
sI7607
(dp7791
sI7608
(dp7792
sI7609
(dp7793
sI7610
(dp7794
sI7611
(dp7795
sI7612
(dp7796
sI7613
(dp7797
sI7614
(dp7798
sI7615
(dp7799
sI7616
(dp7800
sI7617
(dp7801
sI7618
(dp7802
sI7619
(dp7803
sI7620
(dp7804
sI7621
(dp7805
sI7622
(dp7806
sI7623
(dp7807
sI7624
(dp7808
sI7625
(dp7809
sI7626
(dp7810
sI7627
(dp7811
sI7628
(dp7812
sI7629
(dp7813
sI7630
(dp7814
sI7631
(dp7815
sI7632
(dp7816
sI7633
(dp7817
sI7634
(dp7818
sI7635
(dp7819
sI7636
(dp7820
sI7637
(dp7821
sI7638
(dp7822
sI7639
(dp7823
sI7640
(dp7824
sI7641
(dp7825
sI7642
(dp7826
sI7643
(dp7827
sI7644
(dp7828
sI7645
(dp7829
sI7646
(dp7830
sI7647
(dp7831
sI7648
(dp7832
sI7649
(dp7833
sI7650
(dp7834
sI7651
(dp7835
sI7652
(dp7836
sI7653
(dp7837
sI7654
(dp7838
sI7655
(dp7839
sI7656
(dp7840
sI7657
(dp7841
sI7658
(dp7842
sI7659
(dp7843
sI7660
(dp7844
sI7661
(dp7845
sI7662
(dp7846
sI7663
(dp7847
sI7664
(dp7848
sI7665
(dp7849
sI7666
(dp7850
sI7667
(dp7851
sI7668
(dp7852
sI7669
(dp7853
sI7670
(dp7854
sI7671
(dp7855
sI7672
(dp7856
sI7673
(dp7857
sI7674
(dp7858
sI7675
(dp7859
sI7676
(dp7860
sI7677
(dp7861
sI7678
(dp7862
sI7679
(dp7863
sI7680
(dp7864
sI7681
(dp7865
sI7682
(dp7866
sI7683
(dp7867
sI7684
(dp7868
sI7685
(dp7869
sI7686
(dp7870
sI7687
(dp7871
sI7688
(dp7872
sI7689
(dp7873
sI7690
(dp7874
sI7691
(dp7875
sI7692
(dp7876
sI7693
(dp7877
sI7694
(dp7878
sI7695
(dp7879
sI7696
(dp7880
sI7697
(dp7881
sI7698
(dp7882
sI7699
(dp7883
sI7700
(dp7884
sI7701
(dp7885
sI7702
(dp7886
sI7703
(dp7887
sI7704
(dp7888
sI7705
(dp7889
sI7706
(dp7890
sI7707
(dp7891
sI7708
(dp7892
sI7709
(dp7893
sI7710
(dp7894
sI7711
(dp7895
sI7712
(dp7896
sI7713
(dp7897
sI7714
(dp7898
sI7715
(dp7899
sI7716
(dp7900
sI7717
(dp7901
sI7718
(dp7902
sI7719
(dp7903
sI7720
(dp7904
sI7721
(dp7905
sI7722
(dp7906
sI7723
(dp7907
sI7724
(dp7908
sI7725
(dp7909
sI7726
(dp7910
sI7727
(dp7911
sI7728
(dp7912
sI7729
(dp7913
sI7730
(dp7914
sI7731
(dp7915
sI7732
(dp7916
sI7733
(dp7917
sI7734
(dp7918
sI7735
(dp7919
sI7736
(dp7920
sI7737
(dp7921
sI7738
(dp7922
sI7739
(dp7923
sI7740
(dp7924
sI7741
(dp7925
sI7742
(dp7926
sI7743
(dp7927
sI7744
(dp7928
sI7745
(dp7929
sI7746
(dp7930
sI7747
(dp7931
sI7748
(dp7932
sI7749
(dp7933
sI7750
(dp7934
sI7751
(dp7935
sI7752
(dp7936
sI7753
(dp7937
sI7754
(dp7938
sI7755
(dp7939
sI7756
(dp7940
sI7757
(dp7941
sI7758
(dp7942
sI7759
(dp7943
sI7760
(dp7944
sI7761
(dp7945
sI7762
(dp7946
sI7763
(dp7947
sI7764
(dp7948
sI7765
(dp7949
sI7766
(dp7950
sI7767
(dp7951
sI7768
(dp7952
sI7769
(dp7953
sI7770
(dp7954
sI7771
(dp7955
sI7772
(dp7956
sI7773
(dp7957
sI7774
(dp7958
sI7775
(dp7959
sI7776
(dp7960
sI7777
(dp7961
sI7778
(dp7962
sI7779
(dp7963
sI7780
(dp7964
sI7781
(dp7965
sI7782
(dp7966
sI7783
(dp7967
sI7784
(dp7968
sI7785
(dp7969
sI7786
(dp7970
sI7787
(dp7971
sI7788
(dp7972
sI7789
(dp7973
sI7790
(dp7974
sI7791
(dp7975
sI7792
(dp7976
sI7793
(dp7977
sI7794
(dp7978
sI7795
(dp7979
sI7796
(dp7980
sI7797
(dp7981
sI7798
(dp7982
sI7799
(dp7983
sI7800
(dp7984
sI7801
(dp7985
sI7802
(dp7986
sI7803
(dp7987
sI7804
(dp7988
sI7805
(dp7989
sI7806
(dp7990
sI7807
(dp7991
sI7808
(dp7992
sI7809
(dp7993
sI7810
(dp7994
sI7811
(dp7995
sI7812
(dp7996
sI7813
(dp7997
sI7814
(dp7998
sI7815
(dp7999
sI7816
(dp8000
sI7817
(dp8001
sI7818
(dp8002
sI7819
(dp8003
sI7820
(dp8004
sI7821
(dp8005
sI7822
(dp8006
sI7823
(dp8007
sI7824
(dp8008
sI7825
(dp8009
sI7826
(dp8010
sI7827
(dp8011
sI7828
(dp8012
sI7829
(dp8013
sI7830
(dp8014
sI7831
(dp8015
sI7832
(dp8016
sI7833
(dp8017
sI7834
(dp8018
sI7835
(dp8019
sI7836
(dp8020
sI7837
(dp8021
sI7838
(dp8022
sI7839
(dp8023
sI7840
(dp8024
sI7841
(dp8025
sI7842
(dp8026
sI7843
(dp8027
sI7844
(dp8028
sI7845
(dp8029
sI7846
(dp8030
sI7847
(dp8031
sI7848
(dp8032
sI7849
(dp8033
sI7850
(dp8034
sI7851
(dp8035
sI7852
(dp8036
sI7853
(dp8037
sI7854
(dp8038
sI7855
(dp8039
sI7856
(dp8040
sI7857
(dp8041
sI7858
(dp8042
sI7859
(dp8043
sI7860
(dp8044
sI7861
(dp8045
sI7862
(dp8046
sI7863
(dp8047
sI7864
(dp8048
sI7865
(dp8049
sI7866
(dp8050
sI7867
(dp8051
sI7868
(dp8052
sI7869
(dp8053
sI7870
(dp8054
sI7871
(dp8055
sI7872
(dp8056
sI7873
(dp8057
sI7874
(dp8058
sI7875
(dp8059
sI7876
(dp8060
sI7877
(dp8061
sI7878
(dp8062
sI7879
(dp8063
sI7880
(dp8064
sI7881
(dp8065
sI7882
(dp8066
sI7883
(dp8067
sI7884
(dp8068
sI7885
(dp8069
sI7886
(dp8070
sI7887
(dp8071
sI7888
(dp8072
sI7889
(dp8073
sI7890
(dp8074
sI7891
(dp8075
sI7892
(dp8076
sI7893
(dp8077
sI7894
(dp8078
sI7895
(dp8079
sI7896
(dp8080
sI7897
(dp8081
sI7898
(dp8082
sI7899
(dp8083
sI7900
(dp8084
sI7901
(dp8085
sI7902
(dp8086
sI7903
(dp8087
sI7904
(dp8088
sI7905
(dp8089
sI7906
(dp8090
sI7907
(dp8091
sI7908
(dp8092
sI7909
(dp8093
sI7910
(dp8094
sI7911
(dp8095
sI7912
(dp8096
sI7913
(dp8097
sI7914
(dp8098
sI7915
(dp8099
sI7916
(dp8100
sI7917
(dp8101
sI7918
(dp8102
sI7919
(dp8103
sI7920
(dp8104
sI7921
(dp8105
sI7922
(dp8106
sI7923
(dp8107
sI7924
(dp8108
sI7925
(dp8109
sI7926
(dp8110
sI7927
(dp8111
sI7928
(dp8112
sI7929
(dp8113
sI7930
(dp8114
sI7931
(dp8115
sI7932
(dp8116
sI7933
(dp8117
sI7934
(dp8118
sI7935
(dp8119
sI7936
(dp8120
sI7937
(dp8121
sI7938
(dp8122
sI7939
(dp8123
sI7940
(dp8124
sI7941
(dp8125
sI7942
(dp8126
sI7943
(dp8127
sI7944
(dp8128
sI7945
(dp8129
sI7946
(dp8130
sI7947
(dp8131
sI7948
(dp8132
sI7949
(dp8133
sI7950
(dp8134
sI7951
(dp8135
sI7952
(dp8136
sI7953
(dp8137
sI7954
(dp8138
sI7955
(dp8139
sI7956
(dp8140
sI7957
(dp8141
sI7958
(dp8142
sI7959
(dp8143
sI7960
(dp8144
sI7961
(dp8145
sI7962
(dp8146
sI7963
(dp8147
sI7964
(dp8148
sI7965
(dp8149
sI7966
(dp8150
sI7967
(dp8151
sI7968
(dp8152
sI7969
(dp8153
sI7970
(dp8154
sI7971
(dp8155
sI7972
(dp8156
sI7973
(dp8157
sI7974
(dp8158
sI7975
(dp8159
sI7976
(dp8160
sI7977
(dp8161
sI7978
(dp8162
sI7979
(dp8163
sI7980
(dp8164
sI7981
(dp8165
sI7982
(dp8166
sI7983
(dp8167
sI7984
(dp8168
sI7985
(dp8169
sI7986
(dp8170
sI7987
(dp8171
sI7988
(dp8172
sI7989
(dp8173
sI7990
(dp8174
sI7991
(dp8175
sI7992
(dp8176
sI7993
(dp8177
sI7994
(dp8178
sI7995
(dp8179
sI7996
(dp8180
sI7997
(dp8181
sI7998
(dp8182
sI7999
(dp8183
sI8000
(dp8184
sI8001
(dp8185
sI8002
(dp8186
sI8003
(dp8187
sI8004
(dp8188
sI8005
(dp8189
sI8006
(dp8190
sI8007
(dp8191
sI8008
(dp8192
sI8009
(dp8193
sI8010
(dp8194
sI8011
(dp8195
sI8012
(dp8196
sI8013
(dp8197
sI8014
(dp8198
sI8015
(dp8199
sI8016
(dp8200
sI8017
(dp8201
sI8018
(dp8202
sI8019
(dp8203
sI8020
(dp8204
sI8021
(dp8205
sI8022
(dp8206
sI8023
(dp8207
sI8024
(dp8208
sI8025
(dp8209
sI8026
(dp8210
sI8027
(dp8211
sI8028
(dp8212
sI8029
(dp8213
sI8030
(dp8214
sI8031
(dp8215
sI8032
(dp8216
sI8033
(dp8217
sI8034
(dp8218
sI8035
(dp8219
sI8036
(dp8220
sI8037
(dp8221
sI8038
(dp8222
sI8039
(dp8223
sI8040
(dp8224
sI8041
(dp8225
sI8042
(dp8226
sI8043
(dp8227
sI8044
(dp8228
sI8045
(dp8229
sI8046
(dp8230
sI8047
(dp8231
sI8048
(dp8232
sI8049
(dp8233
sI8050
(dp8234
sI8051
(dp8235
sI8052
(dp8236
sI8053
(dp8237
sI8054
(dp8238
sI8055
(dp8239
sI8056
(dp8240
sI8057
(dp8241
sI8058
(dp8242
sI8059
(dp8243
sI8060
(dp8244
sI8061
(dp8245
sI8062
(dp8246
sI8063
(dp8247
sI8064
(dp8248
sI8065
(dp8249
sI8066
(dp8250
sI8067
(dp8251
sI8068
(dp8252
sI8069
(dp8253
sI8070
(dp8254
sI8071
(dp8255
sI8072
(dp8256
sI8073
(dp8257
sI8074
(dp8258
sI8075
(dp8259
sI8076
(dp8260
sI8077
(dp8261
sI8078
(dp8262
sI8079
(dp8263
sI8080
(dp8264
sI8081
(dp8265
sI8082
(dp8266
sI8083
(dp8267
sI8084
(dp8268
sI8085
(dp8269
sI8086
(dp8270
sI8087
(dp8271
sI8088
(dp8272
sI8089
(dp8273
sI8090
(dp8274
sI8091
(dp8275
sI8092
(dp8276
sI8093
(dp8277
sI8094
(dp8278
sI8095
(dp8279
sI8096
(dp8280
sI8097
(dp8281
sI8098
(dp8282
sI8099
(dp8283
sI8100
(dp8284
sI8101
(dp8285
sI8102
(dp8286
sI8103
(dp8287
sI8104
(dp8288
sI8105
(dp8289
sI8106
(dp8290
sI8107
(dp8291
sI8108
(dp8292
sI8109
(dp8293
sI8110
(dp8294
sI8111
(dp8295
sI8112
(dp8296
sI8113
(dp8297
sI8114
(dp8298
sI8115
(dp8299
sI8116
(dp8300
sI8117
(dp8301
sI8118
(dp8302
sI8119
(dp8303
sI8120
(dp8304
sI8121
(dp8305
sI8122
(dp8306
sI8123
(dp8307
sI8124
(dp8308
sI8125
(dp8309
sI8126
(dp8310
sI8127
(dp8311
sI8128
(dp8312
sI8129
(dp8313
sI8130
(dp8314
sI8131
(dp8315
sI8132
(dp8316
sI8133
(dp8317
sI8134
(dp8318
sI8135
(dp8319
sI8136
(dp8320
sI8137
(dp8321
sI8138
(dp8322
sI8139
(dp8323
sI8140
(dp8324
sI8141
(dp8325
sI8142
(dp8326
sI8143
(dp8327
sI8144
(dp8328
sI8145
(dp8329
sI8146
(dp8330
sI8147
(dp8331
sI8148
(dp8332
sI8149
(dp8333
sI8150
(dp8334
sI8151
(dp8335
sI8152
(dp8336
sI8153
(dp8337
sI8154
(dp8338
sI8155
(dp8339
sI8156
(dp8340
sI8157
(dp8341
sI8158
(dp8342
sI8159
(dp8343
sI8160
(dp8344
sI8161
(dp8345
sI8162
(dp8346
sI8163
(dp8347
sI8164
(dp8348
sI8165
(dp8349
sI8166
(dp8350
sI8167
(dp8351
sI8168
(dp8352
sI8169
(dp8353
sI8170
(dp8354
sI8171
(dp8355
sI8172
(dp8356
sI8173
(dp8357
sI8174
(dp8358
sI8175
(dp8359
sI8176
(dp8360
sI8177
(dp8361
sI8178
(dp8362
sI8179
(dp8363
sI8180
(dp8364
sI8181
(dp8365
sI8182
(dp8366
sI8183
(dp8367
sI8184
(dp8368
sI8185
(dp8369
sI8186
(dp8370
sI8187
(dp8371
sI8188
(dp8372
sI8189
(dp8373
sI8190
(dp8374
sI8191
(dp8375
sI8192
(dp8376
sI8193
(dp8377
sI8194
(dp8378
sI8195
(dp8379
sI8196
(dp8380
sI8197
(dp8381
sI8198
(dp8382
sI8199
(dp8383
sI8200
(dp8384
sI8201
(dp8385
sI8202
(dp8386
sI8203
(dp8387
sI8204
(dp8388
sI8205
(dp8389
sI8206
(dp8390
sI8207
(dp8391
sI8208
(dp8392
sI8209
(dp8393
sI8210
(dp8394
sI8211
(dp8395
sI8212
(dp8396
sI8213
(dp8397
sI8214
(dp8398
sI8215
(dp8399
sI8216
(dp8400
sI8217
(dp8401
sI8218
(dp8402
sI8219
(dp8403
sI8220
(dp8404
sI8221
(dp8405
sI8222
(dp8406
sI8223
(dp8407
sI8224
(dp8408
sI8225
(dp8409
sI8226
(dp8410
sI8227
(dp8411
sI8228
(dp8412
sI8229
(dp8413
sI8230
(dp8414
sI8231
(dp8415
sI8232
(dp8416
sI8233
(dp8417
sI8234
(dp8418
sI8235
(dp8419
sI8236
(dp8420
sI8237
(dp8421
sI8238
(dp8422
sI8239
(dp8423
sI8240
(dp8424
sI8241
(dp8425
sI8242
(dp8426
sI8243
(dp8427
sI8244
(dp8428
sI8245
(dp8429
sI8246
(dp8430
sI8247
(dp8431
sI8248
(dp8432
sI8249
(dp8433
sI8250
(dp8434
sI8251
(dp8435
sI8252
(dp8436
sI8253
(dp8437
sI8254
(dp8438
sI8255
(dp8439
sI8256
(dp8440
sI8257
(dp8441
sI8258
(dp8442
sI8259
(dp8443
sI8260
(dp8444
sI8261
(dp8445
sI8262
(dp8446
sI8263
(dp8447
sI8264
(dp8448
sI8265
(dp8449
sI8266
(dp8450
sI8267
(dp8451
sI8268
(dp8452
sI8269
(dp8453
sI8270
(dp8454
sI8271
(dp8455
sI8272
(dp8456
sI8273
(dp8457
sI8274
(dp8458
sI8275
(dp8459
sI8276
(dp8460
sI8277
(dp8461
sI8278
(dp8462
sI8279
(dp8463
sI8280
(dp8464
sI8281
(dp8465
sI8282
(dp8466
sI8283
(dp8467
sI8284
(dp8468
sI8285
(dp8469
sI8286
(dp8470
sI8287
(dp8471
sI8288
(dp8472
sI8289
(dp8473
sI8290
(dp8474
sI8291
(dp8475
sI8292
(dp8476
sI8293
(dp8477
sI8294
(dp8478
sI8295
(dp8479
sI8296
(dp8480
sI8297
(dp8481
sI8298
(dp8482
sI8299
(dp8483
sI8300
(dp8484
sI8301
(dp8485
sI8302
(dp8486
sI8303
(dp8487
sI8304
(dp8488
sI8305
(dp8489
sI8306
(dp8490
sI8307
(dp8491
sI8308
(dp8492
sI8309
(dp8493
sI8310
(dp8494
sI8311
(dp8495
sI8312
(dp8496
sI8313
(dp8497
sI8314
(dp8498
sI8315
(dp8499
sI8316
(dp8500
sI8317
(dp8501
sI8318
(dp8502
sI8319
(dp8503
sI8320
(dp8504
sI8321
(dp8505
sI8322
(dp8506
sI8323
(dp8507
sI8324
(dp8508
sI8325
(dp8509
sI8326
(dp8510
sI8327
(dp8511
sI8328
(dp8512
sI8329
(dp8513
sI8330
(dp8514
sI8331
(dp8515
sI8332
(dp8516
sI8333
(dp8517
sI8334
(dp8518
sI8335
(dp8519
sI8336
(dp8520
sI8337
(dp8521
sI8338
(dp8522
sI8339
(dp8523
sI8340
(dp8524
sI8341
(dp8525
sI8342
(dp8526
sI8343
(dp8527
sI8344
(dp8528
sI8345
(dp8529
sI8346
(dp8530
sI8347
(dp8531
sI8348
(dp8532
sI8349
(dp8533
sI8350
(dp8534
sI8351
(dp8535
sI8352
(dp8536
sI8353
(dp8537
sI8354
(dp8538
sI8355
(dp8539
sI8356
(dp8540
sI8357
(dp8541
sI8358
(dp8542
sI8359
(dp8543
sI8360
(dp8544
sI8361
(dp8545
sI8362
(dp8546
sI8363
(dp8547
sI8364
(dp8548
sI8365
(dp8549
sI8366
(dp8550
sI8367
(dp8551
sI8368
(dp8552
sI8369
(dp8553
sI8370
(dp8554
sI8371
(dp8555
sI8372
(dp8556
sI8373
(dp8557
sI8374
(dp8558
sI8375
(dp8559
sI8376
(dp8560
sI8377
(dp8561
sI8378
(dp8562
sI8379
(dp8563
sI8380
(dp8564
sI8381
(dp8565
sI8382
(dp8566
sI8383
(dp8567
sI8384
(dp8568
sI8385
(dp8569
sI8386
(dp8570
sI8387
(dp8571
sI8388
(dp8572
sI8389
(dp8573
sI8390
(dp8574
sI8391
(dp8575
sI8392
(dp8576
sI8393
(dp8577
sI8394
(dp8578
sI8395
(dp8579
sI8396
(dp8580
sI8397
(dp8581
sI8398
(dp8582
sI8399
(dp8583
sI8400
(dp8584
sI8401
(dp8585
sI8402
(dp8586
sI8403
(dp8587
sI8404
(dp8588
sI8405
(dp8589
sI8406
(dp8590
sI8407
(dp8591
sI8408
(dp8592
sI8409
(dp8593
sI8410
(dp8594
sI8411
(dp8595
sI8412
(dp8596
sI8413
(dp8597
sI8414
(dp8598
sI8415
(dp8599
sI8416
(dp8600
sI8417
(dp8601
sI8418
(dp8602
sI8419
(dp8603
sI8420
(dp8604
sI8421
(dp8605
sI8422
(dp8606
sI8423
(dp8607
sI8424
(dp8608
sI8425
(dp8609
sI8426
(dp8610
sI8427
(dp8611
sI8428
(dp8612
sI8429
(dp8613
sI8430
(dp8614
sI8431
(dp8615
sI8432
(dp8616
sI8433
(dp8617
sI8434
(dp8618
sI8435
(dp8619
sI8436
(dp8620
sI8437
(dp8621
sI8438
(dp8622
sI8439
(dp8623
sI8440
(dp8624
sI8441
(dp8625
sI8442
(dp8626
sI8443
(dp8627
sI8444
(dp8628
sI8445
(dp8629
sI8446
(dp8630
sI8447
(dp8631
sI8448
(dp8632
sI8449
(dp8633
sI8450
(dp8634
sI8451
(dp8635
sI8452
(dp8636
sI8453
(dp8637
sI8454
(dp8638
sI8455
(dp8639
sI8456
(dp8640
sI8457
(dp8641
sI8458
(dp8642
sI8459
(dp8643
sI8460
(dp8644
sI8461
(dp8645
sI8462
(dp8646
sI8463
(dp8647
sI8464
(dp8648
sI8465
(dp8649
sI8466
(dp8650
sI8467
(dp8651
sI8468
(dp8652
sI8469
(dp8653
sI8470
(dp8654
sI8471
(dp8655
sI8472
(dp8656
sI8473
(dp8657
sI8474
(dp8658
sI8475
(dp8659
sI8476
(dp8660
sI8477
(dp8661
sI8478
(dp8662
sI8479
(dp8663
sI8480
(dp8664
sI8481
(dp8665
sI8482
(dp8666
sI8483
(dp8667
sI8484
(dp8668
sI8485
(dp8669
sI8486
(dp8670
sI8487
(dp8671
sI8488
(dp8672
sI8489
(dp8673
sI8490
(dp8674
sI8491
(dp8675
sI8492
(dp8676
sI8493
(dp8677
sI8494
(dp8678
sI8495
(dp8679
sI8496
(dp8680
sI8497
(dp8681
sI8498
(dp8682
sI8499
(dp8683
sI8500
(dp8684
sI8501
(dp8685
sI8502
(dp8686
sI8503
(dp8687
sI8504
(dp8688
sI8505
(dp8689
sI8506
(dp8690
sI8507
(dp8691
sI8508
(dp8692
sI8509
(dp8693
sI8510
(dp8694
sI8511
(dp8695
sI8512
(dp8696
sI8513
(dp8697
sI8514
(dp8698
sI8515
(dp8699
sI8516
(dp8700
sI8517
(dp8701
sI8518
(dp8702
sI8519
(dp8703
sI8520
(dp8704
sI8521
(dp8705
sI8522
(dp8706
sI8523
(dp8707
sI8524
(dp8708
sI8525
(dp8709
sI8526
(dp8710
sI8527
(dp8711
sI8528
(dp8712
sI8529
(dp8713
sI8530
(dp8714
sI8531
(dp8715
sI8532
(dp8716
sI8533
(dp8717
sI8534
(dp8718
sI8535
(dp8719
sI8536
(dp8720
sI8537
(dp8721
sI8538
(dp8722
sI8539
(dp8723
sI8540
(dp8724
sI8541
(dp8725
sI8542
(dp8726
sI8543
(dp8727
sI8544
(dp8728
sI8545
(dp8729
sI8546
(dp8730
sI8547
(dp8731
sI8548
(dp8732
sI8549
(dp8733
sI8550
(dp8734
sI8551
(dp8735
sI8552
(dp8736
sI8553
(dp8737
sI8554
(dp8738
sI8555
(dp8739
sI8556
(dp8740
sI8557
(dp8741
sI8558
(dp8742
sI8559
(dp8743
sI8560
(dp8744
sI8561
(dp8745
sI8562
(dp8746
sI8563
(dp8747
sI8564
(dp8748
sI8565
(dp8749
sI8566
(dp8750
sI8567
(dp8751
sI8568
(dp8752
sI8569
(dp8753
sI8570
(dp8754
sI8571
(dp8755
sI8572
(dp8756
sI8573
(dp8757
sI8574
(dp8758
sI8575
(dp8759
sI8576
(dp8760
sI8577
(dp8761
sI8578
(dp8762
sI8579
(dp8763
sI8580
(dp8764
sI8581
(dp8765
sI8582
(dp8766
sI8583
(dp8767
sI8584
(dp8768
sI8585
(dp8769
sI8586
(dp8770
sI8587
(dp8771
sI8588
(dp8772
sI8589
(dp8773
sI8590
(dp8774
sI8591
(dp8775
sI8592
(dp8776
sI8593
(dp8777
sI8594
(dp8778
sI8595
(dp8779
sI8596
(dp8780
sI8597
(dp8781
sI8598
(dp8782
sI8599
(dp8783
sI8600
(dp8784
sI8601
(dp8785
sI8602
(dp8786
sI8603
(dp8787
sI8604
(dp8788
sI8605
(dp8789
sI8606
(dp8790
sI8607
(dp8791
sI8608
(dp8792
sI8609
(dp8793
sI8610
(dp8794
sI8611
(dp8795
sI8612
(dp8796
sI8613
(dp8797
sI8614
(dp8798
sI8615
(dp8799
sI8616
(dp8800
sI8617
(dp8801
sI8618
(dp8802
sI8619
(dp8803
sI8620
(dp8804
sI8621
(dp8805
sI8622
(dp8806
sI8623
(dp8807
sI8624
(dp8808
sI8625
(dp8809
sI8626
(dp8810
sI8627
(dp8811
sI8628
(dp8812
sI8629
(dp8813
sI8630
(dp8814
sI8631
(dp8815
sI8632
(dp8816
sI8633
(dp8817
sI8634
(dp8818
sI8635
(dp8819
sI8636
(dp8820
sI8637
(dp8821
sI8638
(dp8822
sI8639
(dp8823
sI8640
(dp8824
sI8641
(dp8825
sI8642
(dp8826
sI8643
(dp8827
sI8644
(dp8828
sI8645
(dp8829
sI8646
(dp8830
sI8647
(dp8831
sI8648
(dp8832
sI8649
(dp8833
sI8650
(dp8834
sI8651
(dp8835
sI8652
(dp8836
sI8653
(dp8837
sI8654
(dp8838
sI8655
(dp8839
sI8656
(dp8840
sI8657
(dp8841
sI8658
(dp8842
sI8659
(dp8843
sI8660
(dp8844
sI8661
(dp8845
sI8662
(dp8846
sI8663
(dp8847
sI8664
(dp8848
sI8665
(dp8849
sI8666
(dp8850
sI8667
(dp8851
sI8668
(dp8852
sI8669
(dp8853
sI8670
(dp8854
sI8671
(dp8855
sI8672
(dp8856
sI8673
(dp8857
sI8674
(dp8858
sI8675
(dp8859
sI8676
(dp8860
sI8677
(dp8861
sI8678
(dp8862
sI8679
(dp8863
sI8680
(dp8864
sI8681
(dp8865
sI8682
(dp8866
sI8683
(dp8867
sI8684
(dp8868
sI8685
(dp8869
sI8686
(dp8870
sI8687
(dp8871
sI8688
(dp8872
sI8689
(dp8873
sI8690
(dp8874
sI8691
(dp8875
sI8692
(dp8876
sI8693
(dp8877
sI8694
(dp8878
sI8695
(dp8879
sI8696
(dp8880
sI8697
(dp8881
sI8698
(dp8882
sI8699
(dp8883
sI8700
(dp8884
sI8701
(dp8885
sI8702
(dp8886
sI8703
(dp8887
sI8704
(dp8888
sI8705
(dp8889
sI8706
(dp8890
sI8707
(dp8891
sI8708
(dp8892
sI8709
(dp8893
sI8710
(dp8894
sI8711
(dp8895
sI8712
(dp8896
sI8713
(dp8897
sI8714
(dp8898
sI8715
(dp8899
sI8716
(dp8900
sI8717
(dp8901
sI8718
(dp8902
sI8719
(dp8903
sI8720
(dp8904
sI8721
(dp8905
sI8722
(dp8906
sI8723
(dp8907
sI8724
(dp8908
sI8725
(dp8909
sI8726
(dp8910
sI8727
(dp8911
sI8728
(dp8912
sI8729
(dp8913
sI8730
(dp8914
sI8731
(dp8915
sI8732
(dp8916
sI8733
(dp8917
sI8734
(dp8918
sI8735
(dp8919
sI8736
(dp8920
sI8737
(dp8921
sI8738
(dp8922
sI8739
(dp8923
sI8740
(dp8924
sI8741
(dp8925
sI8742
(dp8926
sI8743
(dp8927
sI8744
(dp8928
sI8745
(dp8929
sI8746
(dp8930
sI8747
(dp8931
sI8748
(dp8932
sI8749
(dp8933
sI8750
(dp8934
sI8751
(dp8935
sI8752
(dp8936
sI8753
(dp8937
sI8754
(dp8938
sI8755
(dp8939
sI8756
(dp8940
sI8757
(dp8941
sI8758
(dp8942
sI8759
(dp8943
sI8760
(dp8944
sI8761
(dp8945
sI8762
(dp8946
sI8763
(dp8947
sI8764
(dp8948
sI8765
(dp8949
sI8766
(dp8950
sI8767
(dp8951
sI8768
(dp8952
sI8769
(dp8953
sI8770
(dp8954
sI8771
(dp8955
sI8772
(dp8956
sI8773
(dp8957
sI8774
(dp8958
sI8775
(dp8959
sI8776
(dp8960
sI8777
(dp8961
sI8778
(dp8962
sI8779
(dp8963
sI8780
(dp8964
sI8781
(dp8965
sI8782
(dp8966
sI8783
(dp8967
sI8784
(dp8968
sI8785
(dp8969
sI8786
(dp8970
sI8787
(dp8971
sI8788
(dp8972
sI8789
(dp8973
sI8790
(dp8974
sI8791
(dp8975
sI8792
(dp8976
sI8793
(dp8977
sI8794
(dp8978
sI8795
(dp8979
sI8796
(dp8980
sI8797
(dp8981
sI8798
(dp8982
sI8799
(dp8983
sI8800
(dp8984
sI8801
(dp8985
sI8802
(dp8986
sI8803
(dp8987
sI8804
(dp8988
sI8805
(dp8989
sI8806
(dp8990
sI8807
(dp8991
sI8808
(dp8992
sI8809
(dp8993
sI8810
(dp8994
sI8811
(dp8995
sI8812
(dp8996
sI8813
(dp8997
sI8814
(dp8998
sI8815
(dp8999
sI8816
(dp9000
sI8817
(dp9001
sI8818
(dp9002
sI8819
(dp9003
sI8820
(dp9004
sI8821
(dp9005
sI8822
(dp9006
sI8823
(dp9007
sI8824
(dp9008
sI8825
(dp9009
sI8826
(dp9010
sI8827
(dp9011
sI8828
(dp9012
sI8829
(dp9013
sI8830
(dp9014
sI8831
(dp9015
sI8832
(dp9016
sI8833
(dp9017
sI8834
(dp9018
sI8835
(dp9019
sI8836
(dp9020
sI8837
(dp9021
sI8838
(dp9022
sI8839
(dp9023
sI8840
(dp9024
sI8841
(dp9025
sI8842
(dp9026
sI8843
(dp9027
sI8844
(dp9028
sI8845
(dp9029
sI8846
(dp9030
sI8847
(dp9031
sI8848
(dp9032
sI8849
(dp9033
sI8850
(dp9034
sI8851
(dp9035
sI8852
(dp9036
sI8853
(dp9037
sI8854
(dp9038
sI8855
(dp9039
sI8856
(dp9040
sI8857
(dp9041
sI8858
(dp9042
sI8859
(dp9043
sI8860
(dp9044
sI8861
(dp9045
sI8862
(dp9046
sI8863
(dp9047
sI8864
(dp9048
sI8865
(dp9049
sI8866
(dp9050
sI8867
(dp9051
sI8868
(dp9052
sI8869
(dp9053
sI8870
(dp9054
sI8871
(dp9055
sI8872
(dp9056
sI8873
(dp9057
sI8874
(dp9058
sI8875
(dp9059
sI8876
(dp9060
sI8877
(dp9061
sI8878
(dp9062
sI8879
(dp9063
sI8880
(dp9064
sI8881
(dp9065
sI8882
(dp9066
sI8883
(dp9067
sI8884
(dp9068
sI8885
(dp9069
sI8886
(dp9070
sI8887
(dp9071
sI8888
(dp9072
sI8889
(dp9073
sI8890
(dp9074
sI8891
(dp9075
sI8892
(dp9076
sI8893
(dp9077
sI8894
(dp9078
sI8895
(dp9079
sI8896
(dp9080
sI8897
(dp9081
sI8898
(dp9082
sI8899
(dp9083
sI8900
(dp9084
sI8901
(dp9085
sI8902
(dp9086
sI8903
(dp9087
sI8904
(dp9088
sI8905
(dp9089
sI8906
(dp9090
sI8907
(dp9091
sI8908
(dp9092
sI8909
(dp9093
sI8910
(dp9094
sI8911
(dp9095
sI8912
(dp9096
sI8913
(dp9097
sI8914
(dp9098
sI8915
(dp9099
sI8916
(dp9100
sI8917
(dp9101
sI8918
(dp9102
sI8919
(dp9103
sI8920
(dp9104
sI8921
(dp9105
sI8922
(dp9106
sI8923
(dp9107
sI8924
(dp9108
sI8925
(dp9109
sI8926
(dp9110
sI8927
(dp9111
sI8928
(dp9112
sI8929
(dp9113
sI8930
(dp9114
sI8931
(dp9115
sI8932
(dp9116
sI8933
(dp9117
sI8934
(dp9118
sI8935
(dp9119
sI8936
(dp9120
sI8937
(dp9121
sI8938
(dp9122
sI8939
(dp9123
sI8940
(dp9124
sI8941
(dp9125
sI8942
(dp9126
sI8943
(dp9127
sI8944
(dp9128
sI8945
(dp9129
sI8946
(dp9130
sI8947
(dp9131
sI8948
(dp9132
sI8949
(dp9133
sI8950
(dp9134
sI8951
(dp9135
sI8952
(dp9136
sI8953
(dp9137
sI8954
(dp9138
sI8955
(dp9139
sI8956
(dp9140
sI8957
(dp9141
sI8958
(dp9142
sI8959
(dp9143
sI8960
(dp9144
sI8961
(dp9145
sI8962
(dp9146
sI8963
(dp9147
sI8964
(dp9148
sI8965
(dp9149
sI8966
(dp9150
sI8967
(dp9151
sI8968
(dp9152
sI8969
(dp9153
sI8970
(dp9154
sI8971
(dp9155
sI8972
(dp9156
sI8973
(dp9157
sI8974
(dp9158
sI8975
(dp9159
sI8976
(dp9160
sI8977
(dp9161
sI8978
(dp9162
sI8979
(dp9163
sI8980
(dp9164
sI8981
(dp9165
sI8982
(dp9166
sI8983
(dp9167
sI8984
(dp9168
sI8985
(dp9169
sI8986
(dp9170
sI8987
(dp9171
sI8988
(dp9172
sI8989
(dp9173
sI8990
(dp9174
sI8991
(dp9175
sI8992
(dp9176
sI8993
(dp9177
sI8994
(dp9178
sI8995
(dp9179
sI8996
(dp9180
sI8997
(dp9181
sI8998
(dp9182
sI8999
(dp9183
sI9000
(dp9184
sI9001
(dp9185
sI9002
(dp9186
sI9003
(dp9187
sI9004
(dp9188
sI9005
(dp9189
sI9006
(dp9190
sI9007
(dp9191
sI9008
(dp9192
sI9009
(dp9193
sI9010
(dp9194
sI9011
(dp9195
sI9012
(dp9196
sI9013
(dp9197
sI9014
(dp9198
sI9015
(dp9199
sI9016
(dp9200
sI9017
(dp9201
sI9018
(dp9202
sI9019
(dp9203
sI9020
(dp9204
sI9021
(dp9205
sI9022
(dp9206
sI9023
(dp9207
sI9024
(dp9208
sI9025
(dp9209
sI9026
(dp9210
sI9027
(dp9211
sI9028
(dp9212
sI9029
(dp9213
sI9030
(dp9214
sI9031
(dp9215
sI9032
(dp9216
sI9033
(dp9217
sI9034
(dp9218
sI9035
(dp9219
sI9036
(dp9220
sI9037
(dp9221
sI9038
(dp9222
sI9039
(dp9223
sI9040
(dp9224
sI9041
(dp9225
sI9042
(dp9226
sI9043
(dp9227
sI9044
(dp9228
sI9045
(dp9229
sI9046
(dp9230
sI9047
(dp9231
sI9048
(dp9232
sI9049
(dp9233
sI9050
(dp9234
sI9051
(dp9235
sI9052
(dp9236
sI9053
(dp9237
sI9054
(dp9238
sI9055
(dp9239
sI9056
(dp9240
sI9057
(dp9241
sI9058
(dp9242
sI9059
(dp9243
sI9060
(dp9244
sI9061
(dp9245
sI9062
(dp9246
sI9063
(dp9247
sI9064
(dp9248
sI9065
(dp9249
sI9066
(dp9250
sI9067
(dp9251
sI9068
(dp9252
sI9069
(dp9253
sI9070
(dp9254
sI9071
(dp9255
sI9072
(dp9256
sI9073
(dp9257
sI9074
(dp9258
sI9075
(dp9259
sI9076
(dp9260
sI9077
(dp9261
sI9078
(dp9262
sI9079
(dp9263
sI9080
(dp9264
sI9081
(dp9265
sI9082
(dp9266
sI9083
(dp9267
sI9084
(dp9268
sI9085
(dp9269
sI9086
(dp9270
sI9087
(dp9271
sI9088
(dp9272
sI9089
(dp9273
sI9090
(dp9274
sI9091
(dp9275
sI9092
(dp9276
sI9093
(dp9277
sI9094
(dp9278
sI9095
(dp9279
sI9096
(dp9280
sI9097
(dp9281
sI9098
(dp9282
sI9099
(dp9283
sI9100
(dp9284
sI9101
(dp9285
sI9102
(dp9286
sI9103
(dp9287
sI9104
(dp9288
sI9105
(dp9289
sI9106
(dp9290
sI9107
(dp9291
sI9108
(dp9292
sI9109
(dp9293
sI9110
(dp9294
sI9111
(dp9295
sI9112
(dp9296
sI9113
(dp9297
sI9114
(dp9298
sI9115
(dp9299
sI9116
(dp9300
sI9117
(dp9301
sI9118
(dp9302
sI9119
(dp9303
sI9120
(dp9304
sI9121
(dp9305
sI9122
(dp9306
sI9123
(dp9307
sI9124
(dp9308
sI9125
(dp9309
sI9126
(dp9310
sI9127
(dp9311
sI9128
(dp9312
sI9129
(dp9313
sI9130
(dp9314
sI9131
(dp9315
sI9132
(dp9316
sI9133
(dp9317
sI9134
(dp9318
sI9135
(dp9319
sI9136
(dp9320
sI9137
(dp9321
sI9138
(dp9322
sI9139
(dp9323
sI9140
(dp9324
sI9141
(dp9325
sI9142
(dp9326
sI9143
(dp9327
sI9144
(dp9328
sI9145
(dp9329
sI9146
(dp9330
sI9147
(dp9331
sI9148
(dp9332
sI9149
(dp9333
sI9150
(dp9334
sI9151
(dp9335
sI9152
(dp9336
sI9153
(dp9337
sI9154
(dp9338
sI9155
(dp9339
sI9156
(dp9340
sI9157
(dp9341
sI9158
(dp9342
sI9159
(dp9343
sI9160
(dp9344
sI9161
(dp9345
sI9162
(dp9346
sI9163
(dp9347
sI9164
(dp9348
sI9165
(dp9349
sI9166
(dp9350
sI9167
(dp9351
sI9168
(dp9352
sI9169
(dp9353
sI9170
(dp9354
sI9171
(dp9355
sI9172
(dp9356
sI9173
(dp9357
sI9174
(dp9358
sI9175
(dp9359
sI9176
(dp9360
sI9177
(dp9361
sI9178
(dp9362
sI9179
(dp9363
sI9180
(dp9364
sI9181
(dp9365
sI9182
(dp9366
sI9183
(dp9367
sI9184
(dp9368
sI9185
(dp9369
sI9186
(dp9370
sI9187
(dp9371
sI9188
(dp9372
sI9189
(dp9373
sI9190
(dp9374
sI9191
(dp9375
sI9192
(dp9376
sI9193
(dp9377
sI9194
(dp9378
sI9195
(dp9379
sI9196
(dp9380
sI9197
(dp9381
sI9198
(dp9382
sI9199
(dp9383
sI9200
(dp9384
sI9201
(dp9385
sI9202
(dp9386
sI9203
(dp9387
sI9204
(dp9388
sI9205
(dp9389
sI9206
(dp9390
sI9207
(dp9391
sI9208
(dp9392
sI9209
(dp9393
sI9210
(dp9394
sI9211
(dp9395
sI9212
(dp9396
sI9213
(dp9397
sI9214
(dp9398
sI9215
(dp9399
sI9216
(dp9400
sI9217
(dp9401
sI9218
(dp9402
sI9219
(dp9403
sI9220
(dp9404
sI9221
(dp9405
sI9222
(dp9406
sI9223
(dp9407
sI9224
(dp9408
sI9225
(dp9409
sI9226
(dp9410
sI9227
(dp9411
sI9228
(dp9412
sI9229
(dp9413
sI9230
(dp9414
sI9231
(dp9415
sI9232
(dp9416
sI9233
(dp9417
sI9234
(dp9418
sI9235
(dp9419
sI9236
(dp9420
sI9237
(dp9421
sI9238
(dp9422
sI9239
(dp9423
sI9240
(dp9424
sI9241
(dp9425
sI9242
(dp9426
sI9243
(dp9427
sI9244
(dp9428
sI9245
(dp9429
sI9246
(dp9430
sI9247
(dp9431
sI9248
(dp9432
sI9249
(dp9433
sI9250
(dp9434
sI9251
(dp9435
sI9252
(dp9436
sI9253
(dp9437
sI9254
(dp9438
sI9255
(dp9439
sI9256
(dp9440
sI9257
(dp9441
sI9258
(dp9442
sI9259
(dp9443
sI9260
(dp9444
sI9261
(dp9445
sI9262
(dp9446
sI9263
(dp9447
sI9264
(dp9448
sI9265
(dp9449
sI9266
(dp9450
sI9267
(dp9451
sI9268
(dp9452
sI9269
(dp9453
sI9270
(dp9454
sI9271
(dp9455
sI9272
(dp9456
sI9273
(dp9457
sI9274
(dp9458
sI9275
(dp9459
sI9276
(dp9460
sI9277
(dp9461
sI9278
(dp9462
sI9279
(dp9463
sI9280
(dp9464
sI9281
(dp9465
sI9282
(dp9466
sI9283
(dp9467
sI9284
(dp9468
sI9285
(dp9469
sI9286
(dp9470
sI9287
(dp9471
sI9288
(dp9472
sI9289
(dp9473
sI9290
(dp9474
sI9291
(dp9475
sI9292
(dp9476
sI9293
(dp9477
sI9294
(dp9478
sI9295
(dp9479
sI9296
(dp9480
sI9297
(dp9481
sI9298
(dp9482
sI9299
(dp9483
sI9300
(dp9484
sI9301
(dp9485
sI9302
(dp9486
sI9303
(dp9487
sI9304
(dp9488
sI9305
(dp9489
sI9306
(dp9490
sI9307
(dp9491
sI9308
(dp9492
sI9309
(dp9493
sI9310
(dp9494
sI9311
(dp9495
sI9312
(dp9496
sI9313
(dp9497
sI9314
(dp9498
sI9315
(dp9499
sI9316
(dp9500
sI9317
(dp9501
sI9318
(dp9502
sI9319
(dp9503
sI9320
(dp9504
sI9321
(dp9505
sI9322
(dp9506
sI9323
(dp9507
sI9324
(dp9508
sI9325
(dp9509
sI9326
(dp9510
sI9327
(dp9511
sI9328
(dp9512
sI9329
(dp9513
sI9330
(dp9514
sI9331
(dp9515
sI9332
(dp9516
sI9333
(dp9517
sI9334
(dp9518
sI9335
(dp9519
sI9336
(dp9520
sI9337
(dp9521
sI9338
(dp9522
sI9339
(dp9523
sI9340
(dp9524
sI9341
(dp9525
sI9342
(dp9526
sI9343
(dp9527
sI9344
(dp9528
sI9345
(dp9529
sI9346
(dp9530
sI9347
(dp9531
sI9348
(dp9532
sI9349
(dp9533
sI9350
(dp9534
sI9351
(dp9535
sI9352
(dp9536
sI9353
(dp9537
sI9354
(dp9538
sI9355
(dp9539
sI9356
(dp9540
sI9357
(dp9541
sI9358
(dp9542
sI9359
(dp9543
sI9360
(dp9544
sI9361
(dp9545
sI9362
(dp9546
sI9363
(dp9547
sI9364
(dp9548
sI9365
(dp9549
sI9366
(dp9550
sI9367
(dp9551
sI9368
(dp9552
sI9369
(dp9553
sI9370
(dp9554
sI9371
(dp9555
sI9372
(dp9556
sI9373
(dp9557
sI9374
(dp9558
sI9375
(dp9559
sI9376
(dp9560
sI9377
(dp9561
sI9378
(dp9562
sI9379
(dp9563
sI9380
(dp9564
sI9381
(dp9565
sI9382
(dp9566
sI9383
(dp9567
sI9384
(dp9568
sI9385
(dp9569
sI9386
(dp9570
sI9387
(dp9571
sI9388
(dp9572
sI9389
(dp9573
sI9390
(dp9574
sI9391
(dp9575
sI9392
(dp9576
sI9393
(dp9577
sI9394
(dp9578
sI9395
(dp9579
sI9396
(dp9580
sI9397
(dp9581
sI9398
(dp9582
sI9399
(dp9583
sI9400
(dp9584
sI9401
(dp9585
sI9402
(dp9586
sI9403
(dp9587
sI9404
(dp9588
sI9405
(dp9589
sI9406
(dp9590
sI9407
(dp9591
sI9408
(dp9592
sI9409
(dp9593
sI9410
(dp9594
sI9411
(dp9595
sI9412
(dp9596
sI9413
(dp9597
sI9414
(dp9598
sI9415
(dp9599
sI9416
(dp9600
sI9417
(dp9601
sI9418
(dp9602
sI9419
(dp9603
sI9420
(dp9604
sI9421
(dp9605
sI9422
(dp9606
sI9423
(dp9607
sI9424
(dp9608
sI9425
(dp9609
sI9426
(dp9610
sI9427
(dp9611
sI9428
(dp9612
sI9429
(dp9613
sI9430
(dp9614
sI9431
(dp9615
sI9432
(dp9616
sI9433
(dp9617
sI9434
(dp9618
sI9435
(dp9619
sI9436
(dp9620
sI9437
(dp9621
sI9438
(dp9622
sI9439
(dp9623
sI9440
(dp9624
sI9441
(dp9625
sI9442
(dp9626
sI9443
(dp9627
sI9444
(dp9628
sI9445
(dp9629
sI9446
(dp9630
sI9447
(dp9631
sI9448
(dp9632
sI9449
(dp9633
sI9450
(dp9634
sI9451
(dp9635
sI9452
(dp9636
sI9453
(dp9637
sI9454
(dp9638
sI9455
(dp9639
sI9456
(dp9640
sI9457
(dp9641
sI9458
(dp9642
sI9459
(dp9643
sI9460
(dp9644
sI9461
(dp9645
sI9462
(dp9646
sI9463
(dp9647
sI9464
(dp9648
sI9465
(dp9649
sI9466
(dp9650
sI9467
(dp9651
sI9468
(dp9652
sI9469
(dp9653
sI9470
(dp9654
sI9471
(dp9655
sI9472
(dp9656
sI9473
(dp9657
sI9474
(dp9658
sI9475
(dp9659
sI9476
(dp9660
sI9477
(dp9661
sI9478
(dp9662
sI9479
(dp9663
sI9480
(dp9664
sI9481
(dp9665
sI9482
(dp9666
sI9483
(dp9667
sI9484
(dp9668
sI9485
(dp9669
sI9486
(dp9670
sI9487
(dp9671
sI9488
(dp9672
sI9489
(dp9673
sI9490
(dp9674
sI9491
(dp9675
sI9492
(dp9676
sI9493
(dp9677
sI9494
(dp9678
sI9495
(dp9679
sI9496
(dp9680
sI9497
(dp9681
sI9498
(dp9682
sI9499
(dp9683
sI9500
(dp9684
sI9501
(dp9685
sI9502
(dp9686
sI9503
(dp9687
sI9504
(dp9688
sI9505
(dp9689
sI9506
(dp9690
sI9507
(dp9691
sI9508
(dp9692
sI9509
(dp9693
sI9510
(dp9694
sI9511
(dp9695
sI9512
(dp9696
sI9513
(dp9697
sI9514
(dp9698
sI9515
(dp9699
sI9516
(dp9700
sI9517
(dp9701
sI9518
(dp9702
sI9519
(dp9703
sI9520
(dp9704
sI9521
(dp9705
sI9522
(dp9706
sI9523
(dp9707
sI9524
(dp9708
sI9525
(dp9709
sI9526
(dp9710
sI9527
(dp9711
sI9528
(dp9712
sI9529
(dp9713
sI9530
(dp9714
sI9531
(dp9715
sI9532
(dp9716
sI9533
(dp9717
sI9534
(dp9718
sI9535
(dp9719
sI9536
(dp9720
sI9537
(dp9721
sI9538
(dp9722
sI9539
(dp9723
sI9540
(dp9724
sI9541
(dp9725
sI9542
(dp9726
sI9543
(dp9727
sI9544
(dp9728
sI9545
(dp9729
sI9546
(dp9730
sI9547
(dp9731
sI9548
(dp9732
sI9549
(dp9733
sI9550
(dp9734
sI9551
(dp9735
sI9552
(dp9736
sI9553
(dp9737
sI9554
(dp9738
sI9555
(dp9739
sI9556
(dp9740
sI9557
(dp9741
sI9558
(dp9742
sI9559
(dp9743
sI9560
(dp9744
sI9561
(dp9745
sI9562
(dp9746
sI9563
(dp9747
sI9564
(dp9748
sI9565
(dp9749
sI9566
(dp9750
sI9567
(dp9751
sI9568
(dp9752
sI9569
(dp9753
sI9570
(dp9754
sI9571
(dp9755
sI9572
(dp9756
sI9573
(dp9757
sI9574
(dp9758
sI9575
(dp9759
sI9576
(dp9760
sI9577
(dp9761
sI9578
(dp9762
sI9579
(dp9763
sI9580
(dp9764
sI9581
(dp9765
sI9582
(dp9766
sI9583
(dp9767
sI9584
(dp9768
sI9585
(dp9769
sI9586
(dp9770
sI9587
(dp9771
sI9588
(dp9772
sI9589
(dp9773
sI9590
(dp9774
sI9591
(dp9775
sI9592
(dp9776
sI9593
(dp9777
sI9594
(dp9778
sI9595
(dp9779
sI9596
(dp9780
sI9597
(dp9781
sI9598
(dp9782
sI9599
(dp9783
sI9600
(dp9784
sI9601
(dp9785
sI9602
(dp9786
sI9603
(dp9787
sI9604
(dp9788
sI9605
(dp9789
sI9606
(dp9790
sI9607
(dp9791
sI9608
(dp9792
sI9609
(dp9793
sI9610
(dp9794
sI9611
(dp9795
sI9612
(dp9796
sI9613
(dp9797
sI9614
(dp9798
sI9615
(dp9799
sI9616
(dp9800
sI9617
(dp9801
sI9618
(dp9802
sI9619
(dp9803
sI9620
(dp9804
sI9621
(dp9805
sI9622
(dp9806
sI9623
(dp9807
sI9624
(dp9808
sI9625
(dp9809
sI9626
(dp9810
sI9627
(dp9811
sI9628
(dp9812
sI9629
(dp9813
sI9630
(dp9814
sI9631
(dp9815
sI9632
(dp9816
sI9633
(dp9817
sI9634
(dp9818
sI9635
(dp9819
sI9636
(dp9820
sI9637
(dp9821
sI9638
(dp9822
sI9639
(dp9823
sI9640
(dp9824
sI9641
(dp9825
sI9642
(dp9826
sI9643
(dp9827
sI9644
(dp9828
sI9645
(dp9829
sI9646
(dp9830
sI9647
(dp9831
sI9648
(dp9832
sI9649
(dp9833
sI9650
(dp9834
sI9651
(dp9835
sI9652
(dp9836
sI9653
(dp9837
sI9654
(dp9838
sI9655
(dp9839
sI9656
(dp9840
sI9657
(dp9841
sI9658
(dp9842
sI9659
(dp9843
sI9660
(dp9844
sI9661
(dp9845
sI9662
(dp9846
sI9663
(dp9847
sI9664
(dp9848
sI9665
(dp9849
sI9666
(dp9850
sI9667
(dp9851
sI9668
(dp9852
sI9669
(dp9853
sI9670
(dp9854
sI9671
(dp9855
sI9672
(dp9856
sI9673
(dp9857
sI9674
(dp9858
sI9675
(dp9859
sI9676
(dp9860
sI9677
(dp9861
sI9678
(dp9862
sI9679
(dp9863
sI9680
(dp9864
sI9681
(dp9865
sI9682
(dp9866
sI9683
(dp9867
sI9684
(dp9868
sI9685
(dp9869
sI9686
(dp9870
sI9687
(dp9871
sI9688
(dp9872
sI9689
(dp9873
sI9690
(dp9874
sI9691
(dp9875
sI9692
(dp9876
sI9693
(dp9877
sI9694
(dp9878
sI9695
(dp9879
sI9696
(dp9880
sI9697
(dp9881
sI9698
(dp9882
sI9699
(dp9883
sI9700
(dp9884
sI9701
(dp9885
sI9702
(dp9886
sI9703
(dp9887
sI9704
(dp9888
sI9705
(dp9889
sI9706
(dp9890
sI9707
(dp9891
sI9708
(dp9892
sI9709
(dp9893
sI9710
(dp9894
sI9711
(dp9895
sI9712
(dp9896
sI9713
(dp9897
sI9714
(dp9898
sI9715
(dp9899
sI9716
(dp9900
sI9717
(dp9901
sI9718
(dp9902
sI9719
(dp9903
sI9720
(dp9904
sI9721
(dp9905
sI9722
(dp9906
sI9723
(dp9907
sI9724
(dp9908
sI9725
(dp9909
sI9726
(dp9910
sI9727
(dp9911
sI9728
(dp9912
sI9729
(dp9913
sI9730
(dp9914
sI9731
(dp9915
sI9732
(dp9916
sI9733
(dp9917
sI9734
(dp9918
sI9735
(dp9919
sI9736
(dp9920
sI9737
(dp9921
sI9738
(dp9922
sI9739
(dp9923
sI9740
(dp9924
sI9741
(dp9925
sI9742
(dp9926
sI9743
(dp9927
sI9744
(dp9928
sI9745
(dp9929
sI9746
(dp9930
sI9747
(dp9931
sI9748
(dp9932
sI9749
(dp9933
sI9750
(dp9934
sI9751
(dp9935
sI9752
(dp9936
sI9753
(dp9937
sI9754
(dp9938
sI9755
(dp9939
sI9756
(dp9940
sI9757
(dp9941
sI9758
(dp9942
sI9759
(dp9943
sI9760
(dp9944
sI9761
(dp9945
sI9762
(dp9946
sI9763
(dp9947
sI9764
(dp9948
sI9765
(dp9949
sI9766
(dp9950
sI9767
(dp9951
sI9768
(dp9952
sI9769
(dp9953
sI9770
(dp9954
sI9771
(dp9955
sI9772
(dp9956
sI9773
(dp9957
sI9774
(dp9958
sI9775
(dp9959
sI9776
(dp9960
sI9777
(dp9961
sI9778
(dp9962
sI9779
(dp9963
sI9780
(dp9964
sI9781
(dp9965
sI9782
(dp9966
sI9783
(dp9967
sI9784
(dp9968
sI9785
(dp9969
sI9786
(dp9970
sI9787
(dp9971
sI9788
(dp9972
sI9789
(dp9973
sI9790
(dp9974
sI9791
(dp9975
sI9792
(dp9976
sI9793
(dp9977
sI9794
(dp9978
sI9795
(dp9979
sI9796
(dp9980
sI9797
(dp9981
sI9798
(dp9982
sI9799
(dp9983
sI9800
(dp9984
sI9801
(dp9985
sI9802
(dp9986
sI9803
(dp9987
sI9804
(dp9988
sI9805
(dp9989
sI9806
(dp9990
sI9807
(dp9991
sI9808
(dp9992
sI9809
(dp9993
sI9810
(dp9994
sI9811
(dp9995
sI9812
(dp9996
sI9813
(dp9997
sI9814
(dp9998
sI9815
(dp9999
sI9816
(dp10000
sI9817
(dp10001
sI9818
(dp10002
sI9819
(dp10003
sI9820
(dp10004
sI9821
(dp10005
sI9822
(dp10006
sI9823
(dp10007
sI9824
(dp10008
sI9825
(dp10009
sI9826
(dp10010
sI9827
(dp10011
sI9828
(dp10012
sI9829
(dp10013
sI9830
(dp10014
sI9831
(dp10015
sI9832
(dp10016
sI9833
(dp10017
sI9834
(dp10018
sI9835
(dp10019
sI9836
(dp10020
sI9837
(dp10021
sI9838
(dp10022
sI9839
(dp10023
sI9840
(dp10024
sI9841
(dp10025
sI9842
(dp10026
sI9843
(dp10027
sI9844
(dp10028
sI9845
(dp10029
sI9846
(dp10030
sI9847
(dp10031
sI9848
(dp10032
sI9849
(dp10033
sI9850
(dp10034
sI9851
(dp10035
sI9852
(dp10036
sI9853
(dp10037
sI9854
(dp10038
sI9855
(dp10039
sI9856
(dp10040
sI9857
(dp10041
sI9858
(dp10042
sI9859
(dp10043
sI9860
(dp10044
sI9861
(dp10045
sI9862
(dp10046
sI9863
(dp10047
sI9864
(dp10048
sI9865
(dp10049
sI9866
(dp10050
sI9867
(dp10051
sI9868
(dp10052
sI9869
(dp10053
sI9870
(dp10054
sI9871
(dp10055
sI9872
(dp10056
sI9873
(dp10057
sI9874
(dp10058
sI9875
(dp10059
sI9876
(dp10060
sI9877
(dp10061
sI9878
(dp10062
sI9879
(dp10063
sI9880
(dp10064
sI9881
(dp10065
sI9882
(dp10066
sI9883
(dp10067
sI9884
(dp10068
sI9885
(dp10069
sI9886
(dp10070
sI9887
(dp10071
sI9888
(dp10072
sI9889
(dp10073
sI9890
(dp10074
sI9891
(dp10075
sI9892
(dp10076
sI9893
(dp10077
sI9894
(dp10078
sI9895
(dp10079
sI9896
(dp10080
sI9897
(dp10081
sI9898
(dp10082
sI9899
(dp10083
sI9900
(dp10084
sI9901
(dp10085
sI9902
(dp10086
sI9903
(dp10087
sI9904
(dp10088
sI9905
(dp10089
sI9906
(dp10090
sI9907
(dp10091
sI9908
(dp10092
sI9909
(dp10093
sI9910
(dp10094
sI9911
(dp10095
sI9912
(dp10096
sI9913
(dp10097
sI9914
(dp10098
sI9915
(dp10099
sI9916
(dp10100
sI9917
(dp10101
sI9918
(dp10102
sI9919
(dp10103
sI9920
(dp10104
sI9921
(dp10105
sI9922
(dp10106
sI9923
(dp10107
sI9924
(dp10108
sI9925
(dp10109
sI9926
(dp10110
sI9927
(dp10111
sI9928
(dp10112
sI9929
(dp10113
sI9930
(dp10114
sI9931
(dp10115
sI9932
(dp10116
sI9933
(dp10117
sI9934
(dp10118
sI9935
(dp10119
sI9936
(dp10120
sI9937
(dp10121
sI9938
(dp10122
sI9939
(dp10123
sI9940
(dp10124
sI9941
(dp10125
sI9942
(dp10126
sI9943
(dp10127
sI9944
(dp10128
sI9945
(dp10129
sI9946
(dp10130
sI9947
(dp10131
sI9948
(dp10132
sI9949
(dp10133
sI9950
(dp10134
sI9951
(dp10135
sI9952
(dp10136
sI9953
(dp10137
sI9954
(dp10138
sI9955
(dp10139
sI9956
(dp10140
sI9957
(dp10141
sI9958
(dp10142
sI9959
(dp10143
sI9960
(dp10144
sI9961
(dp10145
sI9962
(dp10146
sI9963
(dp10147
sI9964
(dp10148
sI9965
(dp10149
sI9966
(dp10150
sI9967
(dp10151
sI9968
(dp10152
sI9969
(dp10153
sI9970
(dp10154
sI9971
(dp10155
sI9972
(dp10156
sI9973
(dp10157
sI9974
(dp10158
sI9975
(dp10159
sI9976
(dp10160
sI9977
(dp10161
sI9978
(dp10162
sI9979
(dp10163
sI9980
(dp10164
sI9981
(dp10165
sI9982
(dp10166
sI9983
(dp10167
sI9984
(dp10168
sI9985
(dp10169
sI9986
(dp10170
sI9987
(dp10171
sI9988
(dp10172
sI9989
(dp10173
sI9990
(dp10174
sI9991
(dp10175
sI9992
(dp10176
sI9993
(dp10177
sI9994
(dp10178
sI9995
(dp10179
sI9996
(dp10180
sI9997
(dp10181
sI9998
(dp10182
sI9999
(dp10183
sI10000
(dp10184
sI10001
(dp10185
sI10002
(dp10186
sI10003
(dp10187
sI10004
(dp10188
sI10005
(dp10189
sI10006
(dp10190
sI10007
(dp10191
sI10008
(dp10192
sI10009
(dp10193
sI10010
(dp10194
sI10011
(dp10195
sI10012
(dp10196
sI10013
(dp10197
sI10014
(dp10198
sI10015
(dp10199
sI10016
(dp10200
sI10017
(dp10201
sI10018
(dp10202
sI10019
(dp10203
sI10020
(dp10204
sI10021
(dp10205
sI10022
(dp10206
sI10023
(dp10207
sI10024
(dp10208
sI10025
(dp10209
sI10026
(dp10210
sI10027
(dp10211
sI10028
(dp10212
sI10029
(dp10213
sI10030
(dp10214
sI10031
(dp10215
sI10032
(dp10216
sI10033
(dp10217
sI10034
(dp10218
sI10035
(dp10219
sI10036
(dp10220
sI10037
(dp10221
sI10038
(dp10222
sI10039
(dp10223
sI10040
(dp10224
sI10041
(dp10225
sI10042
(dp10226
sI10043
(dp10227
sI10044
(dp10228
sI10045
(dp10229
sI10046
(dp10230
sI10047
(dp10231
sI10048
(dp10232
sI10049
(dp10233
sI10050
(dp10234
sI10051
(dp10235
sI10052
(dp10236
sI10053
(dp10237
sI10054
(dp10238
sI10055
(dp10239
sI10056
(dp10240
sI10057
(dp10241
sI10058
(dp10242
sI10059
(dp10243
sI10060
(dp10244
sI10061
(dp10245
sI10062
(dp10246
sI10063
(dp10247
sI10064
(dp10248
sI10065
(dp10249
sI10066
(dp10250
sI10067
(dp10251
sI10068
(dp10252
sI10069
(dp10253
sI10070
(dp10254
sI10071
(dp10255
sI10072
(dp10256
sI10073
(dp10257
sI10074
(dp10258
sI10075
(dp10259
sI10076
(dp10260
sI10077
(dp10261
sI10078
(dp10262
sI10079
(dp10263
sI10080
(dp10264
sI10081
(dp10265
sI10082
(dp10266
sI10083
(dp10267
sI10084
(dp10268
sI10085
(dp10269
sI10086
(dp10270
sI10087
(dp10271
sI10088
(dp10272
sI10089
(dp10273
sI10090
(dp10274
sI10091
(dp10275
sI10092
(dp10276
sI10093
(dp10277
sI10094
(dp10278
sI10095
(dp10279
sI10096
(dp10280
sI10097
(dp10281
sI10098
(dp10282
sI10099
(dp10283
sI10100
(dp10284
sI10101
(dp10285
sI10102
(dp10286
sI10103
(dp10287
sI10104
(dp10288
sI10105
(dp10289
sI10106
(dp10290
sI10107
(dp10291
sI10108
(dp10292
sI10109
(dp10293
sI10110
(dp10294
sI10111
(dp10295
sI10112
(dp10296
sI10113
(dp10297
sI10114
(dp10298
sI10115
(dp10299
sI10116
(dp10300
sI10117
(dp10301
sI10118
(dp10302
sI10119
(dp10303
sI10120
(dp10304
sI10121
(dp10305
sI10122
(dp10306
sI10123
(dp10307
sI10124
(dp10308
sI10125
(dp10309
sI10126
(dp10310
sI10127
(dp10311
sI10128
(dp10312
sI10129
(dp10313
sI10130
(dp10314
sI10131
(dp10315
sI10132
(dp10316
sI10133
(dp10317
sI10134
(dp10318
sI10135
(dp10319
sI10136
(dp10320
sI10137
(dp10321
sI10138
(dp10322
sI10139
(dp10323
sI10140
(dp10324
sI10141
(dp10325
sI10142
(dp10326
sI10143
(dp10327
sI10144
(dp10328
sI10145
(dp10329
sI10146
(dp10330
sI10147
(dp10331
sI10148
(dp10332
sI10149
(dp10333
sI10150
(dp10334
sI10151
(dp10335
sI10152
(dp10336
sI10153
(dp10337
sI10154
(dp10338
sI10155
(dp10339
sI10156
(dp10340
sI10157
(dp10341
sI10158
(dp10342
sI10159
(dp10343
sI10160
(dp10344
sI10161
(dp10345
sI10162
(dp10346
sI10163
(dp10347
sI10164
(dp10348
sI10165
(dp10349
sI10166
(dp10350
sI10167
(dp10351
sI10168
(dp10352
sI10169
(dp10353
sI10170
(dp10354
sI10171
(dp10355
sI10172
(dp10356
sI10173
(dp10357
sI10174
(dp10358
sI10175
(dp10359
sI10176
(dp10360
sI10177
(dp10361
sI10178
(dp10362
sI10179
(dp10363
sI10180
(dp10364
sI10181
(dp10365
sI10182
(dp10366
sI10183
(dp10367
sI10184
(dp10368
sI10185
(dp10369
sI10186
(dp10370
sI10187
(dp10371
sI10188
(dp10372
sI10189
(dp10373
sI10190
(dp10374
sI10191
(dp10375
sI10192
(dp10376
sI10193
(dp10377
sI10194
(dp10378
sI10195
(dp10379
sI10196
(dp10380
sI10197
(dp10381
sI10198
(dp10382
sI10199
(dp10383
sI10200
(dp10384
sI10201
(dp10385
sI10202
(dp10386
sI10203
(dp10387
sI10204
(dp10388
sI10205
(dp10389
sI10206
(dp10390
sI10207
(dp10391
sI10208
(dp10392
sI10209
(dp10393
sI10210
(dp10394
sI10211
(dp10395
sI10212
(dp10396
sI10213
(dp10397
sI10214
(dp10398
sI10215
(dp10399
sI10216
(dp10400
sI10217
(dp10401
sI10218
(dp10402
sI10219
(dp10403
sI10220
(dp10404
sI10221
(dp10405
sI10222
(dp10406
sI10223
(dp10407
sI10224
(dp10408
sI10225
(dp10409
sI10226
(dp10410
sI10227
(dp10411
sI10228
(dp10412
sI10229
(dp10413
sI10230
(dp10414
sI10231
(dp10415
sI10232
(dp10416
sI10233
(dp10417
sI10234
(dp10418
sI10235
(dp10419
sI10236
(dp10420
sI10237
(dp10421
sI10238
(dp10422
sI10239
(dp10423
sI10240
(dp10424
sI10241
(dp10425
sI10242
(dp10426
sI10243
(dp10427
sI10244
(dp10428
sI10245
(dp10429
sI10246
(dp10430
sI10247
(dp10431
sI10248
(dp10432
sI10249
(dp10433
sI10250
(dp10434
sI10251
(dp10435
sI10252
(dp10436
sI10253
(dp10437
sI10254
(dp10438
sI10255
(dp10439
sI10256
(dp10440
sI10257
(dp10441
sI10258
(dp10442
sI10259
(dp10443
sI10260
(dp10444
sI10261
(dp10445
sI10262
(dp10446
sI10263
(dp10447
sI10264
(dp10448
sI10265
(dp10449
sI10266
(dp10450
sI10267
(dp10451
sI10268
(dp10452
sI10269
(dp10453
sI10270
(dp10454
sI10271
(dp10455
sI10272
(dp10456
sI10273
(dp10457
sI10274
(dp10458
sI10275
(dp10459
sI10276
(dp10460
sI10277
(dp10461
sI10278
(dp10462
sI10279
(dp10463
sI10280
(dp10464
sI10281
(dp10465
sI10282
(dp10466
sI10283
(dp10467
sI10284
(dp10468
sI10285
(dp10469
sI10286
(dp10470
sI10287
(dp10471
sI10288
(dp10472
sI10289
(dp10473
sI10290
(dp10474
sI10291
(dp10475
sI10292
(dp10476
sI10293
(dp10477
sI10294
(dp10478
sI10295
(dp10479
sI10296
(dp10480
sI10297
(dp10481
sI10298
(dp10482
sI10299
(dp10483
sI10300
(dp10484
sI10301
(dp10485
sI10302
(dp10486
sI10303
(dp10487
sI10304
(dp10488
sI10305
(dp10489
sI10306
(dp10490
sI10307
(dp10491
sI10308
(dp10492
sI10309
(dp10493
sI10310
(dp10494
sI10311
(dp10495
sI10312
(dp10496
sI10313
(dp10497
sI10314
(dp10498
sI10315
(dp10499
sI10316
(dp10500
sI10317
(dp10501
sI10318
(dp10502
sI10319
(dp10503
sI10320
(dp10504
sI10321
(dp10505
sI10322
(dp10506
sI10323
(dp10507
sI10324
(dp10508
sI10325
(dp10509
sI10326
(dp10510
sI10327
(dp10511
sI10328
(dp10512
sI10329
(dp10513
sI10330
(dp10514
sI10331
(dp10515
sI10332
(dp10516
sI10333
(dp10517
sI10334
(dp10518
sI10335
(dp10519
sI10336
(dp10520
sI10337
(dp10521
sI10338
(dp10522
sI10339
(dp10523
sI10340
(dp10524
sI10341
(dp10525
sI10342
(dp10526
sI10343
(dp10527
sI10344
(dp10528
sI10345
(dp10529
sI10346
(dp10530
sI10347
(dp10531
sI10348
(dp10532
sI10349
(dp10533
sI10350
(dp10534
sI10351
(dp10535
sI10352
(dp10536
sI10353
(dp10537
sI10354
(dp10538
sI10355
(dp10539
sI10356
(dp10540
sI10357
(dp10541
sI10358
(dp10542
sI10359
(dp10543
sI10360
(dp10544
sI10361
(dp10545
sI10362
(dp10546
sI10363
(dp10547
sI10364
(dp10548
sI10365
(dp10549
sI10366
(dp10550
sI10367
(dp10551
sI10368
(dp10552
sI10369
(dp10553
sI10370
(dp10554
sI10371
(dp10555
sI10372
(dp10556
sI10373
(dp10557
sI10374
(dp10558
sI10375
(dp10559
sI10376
(dp10560
sI10377
(dp10561
sI10378
(dp10562
sI10379
(dp10563
sI10380
(dp10564
sI10381
(dp10565
sI10382
(dp10566
sI10383
(dp10567
sI10384
(dp10568
sI10385
(dp10569
sI10386
(dp10570
sI10387
(dp10571
sI10388
(dp10572
sI10389
(dp10573
sI10390
(dp10574
sI10391
(dp10575
sI10392
(dp10576
sI10393
(dp10577
sI10394
(dp10578
sI10395
(dp10579
sI10396
(dp10580
sI10397
(dp10581
sI10398
(dp10582
sI10399
(dp10583
sI10400
(dp10584
sI10401
(dp10585
sI10402
(dp10586
sI10403
(dp10587
sI10404
(dp10588
sI10405
(dp10589
sI10406
(dp10590
sI10407
(dp10591
sI10408
(dp10592
sI10409
(dp10593
sI10410
(dp10594
sI10411
(dp10595
sI10412
(dp10596
sI10413
(dp10597
sI10414
(dp10598
sI10415
(dp10599
sI10416
(dp10600
sI10417
(dp10601
sI10418
(dp10602
sI10419
(dp10603
sI10420
(dp10604
sI10421
(dp10605
sI10422
(dp10606
sI10423
(dp10607
sI10424
(dp10608
sI10425
(dp10609
sI10426
(dp10610
sI10427
(dp10611
sI10428
(dp10612
sI10429
(dp10613
sI10430
(dp10614
sI10431
(dp10615
sI10432
(dp10616
sI10433
(dp10617
sI10434
(dp10618
sI10435
(dp10619
sI10436
(dp10620
sI10437
(dp10621
sI10438
(dp10622
sI10439
(dp10623
sI10440
(dp10624
sI10441
(dp10625
sI10442
(dp10626
sI10443
(dp10627
sI10444
(dp10628
sI10445
(dp10629
sI10446
(dp10630
sI10447
(dp10631
sI10448
(dp10632
sI10449
(dp10633
sI10450
(dp10634
sI10451
(dp10635
sI10452
(dp10636
sI10453
(dp10637
sI10454
(dp10638
sI10455
(dp10639
sI10456
(dp10640
sI10457
(dp10641
sI10458
(dp10642
sI10459
(dp10643
sI10460
(dp10644
sI10461
(dp10645
sI10462
(dp10646
sI10463
(dp10647
sI10464
(dp10648
sI10465
(dp10649
sI10466
(dp10650
sI10467
(dp10651
sI10468
(dp10652
sI10469
(dp10653
sI10470
(dp10654
sI10471
(dp10655
sI10472
(dp10656
sI10473
(dp10657
sI10474
(dp10658
sI10475
(dp10659
sI10476
(dp10660
sI10477
(dp10661
sI10478
(dp10662
sI10479
(dp10663
sI10480
(dp10664
sI10481
(dp10665
sI10482
(dp10666
sI10483
(dp10667
sI10484
(dp10668
sI10485
(dp10669
sI10486
(dp10670
sI10487
(dp10671
sI10488
(dp10672
sI10489
(dp10673
sI10490
(dp10674
sI10491
(dp10675
sI10492
(dp10676
sI10493
(dp10677
sI10494
(dp10678
sI10495
(dp10679
sI10496
(dp10680
sI10497
(dp10681
sI10498
(dp10682
sI10499
(dp10683
sI10500
(dp10684
sI10501
(dp10685
sI10502
(dp10686
sI10503
(dp10687
sI10504
(dp10688
sI10505
(dp10689
sI10506
(dp10690
sI10507
(dp10691
sI10508
(dp10692
sI10509
(dp10693
sI10510
(dp10694
sI10511
(dp10695
sI10512
(dp10696
sI10513
(dp10697
sI10514
(dp10698
sI10515
(dp10699
sI10516
(dp10700
sI10517
(dp10701
sI10518
(dp10702
sI10519
(dp10703
sI10520
(dp10704
sI10521
(dp10705
sI10522
(dp10706
sI10523
(dp10707
sI10524
(dp10708
sI10525
(dp10709
sI10526
(dp10710
sI10527
(dp10711
sI10528
(dp10712
sI10529
(dp10713
sI10530
(dp10714
sI10531
(dp10715
sI10532
(dp10716
sI10533
(dp10717
sI10534
(dp10718
sI10535
(dp10719
sI10536
(dp10720
sI10537
(dp10721
sI10538
(dp10722
sI10539
(dp10723
sI10540
(dp10724
sI10541
(dp10725
sI10542
(dp10726
sI10543
(dp10727
sI10544
(dp10728
sI10545
(dp10729
sI10546
(dp10730
sI10547
(dp10731
sI10548
(dp10732
sI10549
(dp10733
sI10550
(dp10734
sI10551
(dp10735
sI10552
(dp10736
sI10553
(dp10737
sI10554
(dp10738
sI10555
(dp10739
sI10556
(dp10740
sI10557
(dp10741
sI10558
(dp10742
sI10559
(dp10743
sI10560
(dp10744
sI10561
(dp10745
sI10562
(dp10746
sI10563
(dp10747
sI10564
(dp10748
sI10565
(dp10749
sI10566
(dp10750
sI10567
(dp10751
sI10568
(dp10752
sI10569
(dp10753
sI10570
(dp10754
sI10571
(dp10755
sI10572
(dp10756
sI10573
(dp10757
sI10574
(dp10758
sI10575
(dp10759
sI10576
(dp10760
sI10577
(dp10761
sI10578
(dp10762
sI10579
(dp10763
sI10580
(dp10764
sI10581
(dp10765
sI10582
(dp10766
sI10583
(dp10767
sI10584
(dp10768
sI10585
(dp10769
sI10586
(dp10770
sI10587
(dp10771
sI10588
(dp10772
sI10589
(dp10773
sI10590
(dp10774
sI10591
(dp10775
sI10592
(dp10776
sI10593
(dp10777
sI10594
(dp10778
sI10595
(dp10779
sI10596
(dp10780
sI10597
(dp10781
sI10598
(dp10782
sI10599
(dp10783
sI10600
(dp10784
sI10601
(dp10785
sI10602
(dp10786
sI10603
(dp10787
sI10604
(dp10788
sI10605
(dp10789
sI10606
(dp10790
sI10607
(dp10791
sI10608
(dp10792
sI10609
(dp10793
sI10610
(dp10794
sI10611
(dp10795
sI10612
(dp10796
sI10613
(dp10797
sI10614
(dp10798
sI10615
(dp10799
sI10616
(dp10800
sI10617
(dp10801
sI10618
(dp10802
sI10619
(dp10803
sI10620
(dp10804
sI10621
(dp10805
sI10622
(dp10806
sI10623
(dp10807
sI10624
(dp10808
sI10625
(dp10809
sI10626
(dp10810
sI10627
(dp10811
sI10628
(dp10812
sI10629
(dp10813
sI10630
(dp10814
sI10631
(dp10815
sI10632
(dp10816
sI10633
(dp10817
sI10634
(dp10818
sI10635
(dp10819
sI10636
(dp10820
sI10637
(dp10821
sI10638
(dp10822
sI10639
(dp10823
sI10640
(dp10824
sI10641
(dp10825
sI10642
(dp10826
sI10643
(dp10827
sI10644
(dp10828
sI10645
(dp10829
sI10646
(dp10830
sI10647
(dp10831
sI10648
(dp10832
sI10649
(dp10833
sI10650
(dp10834
sI10651
(dp10835
sI10652
(dp10836
sI10653
(dp10837
sI10654
(dp10838
sI10655
(dp10839
sI10656
(dp10840
sI10657
(dp10841
sI10658
(dp10842
sI10659
(dp10843
sI10660
(dp10844
sI10661
(dp10845
sI10662
(dp10846
sI10663
(dp10847
sI10664
(dp10848
sI10665
(dp10849
sI10666
(dp10850
sI10667
(dp10851
sI10668
(dp10852
sI10669
(dp10853
sI10670
(dp10854
sI10671
(dp10855
sI10672
(dp10856
sI10673
(dp10857
sI10674
(dp10858
sI10675
(dp10859
sI10676
(dp10860
sI10677
(dp10861
sI10678
(dp10862
sI10679
(dp10863
sI10680
(dp10864
sI10681
(dp10865
sI10682
(dp10866
sI10683
(dp10867
sI10684
(dp10868
sI10685
(dp10869
sI10686
(dp10870
sI10687
(dp10871
sI10688
(dp10872
sI10689
(dp10873
sI10690
(dp10874
sI10691
(dp10875
sI10692
(dp10876
sI10693
(dp10877
sI10694
(dp10878
sI10695
(dp10879
sI10696
(dp10880
sI10697
(dp10881
sI10698
(dp10882
sI10699
(dp10883
sI10700
(dp10884
sI10701
(dp10885
sI10702
(dp10886
sI10703
(dp10887
sI10704
(dp10888
sI10705
(dp10889
sI10706
(dp10890
sI10707
(dp10891
sI10708
(dp10892
sI10709
(dp10893
sI10710
(dp10894
sI10711
(dp10895
sI10712
(dp10896
sI10713
(dp10897
sI10714
(dp10898
sI10715
(dp10899
sI10716
(dp10900
sI10717
(dp10901
sI10718
(dp10902
sI10719
(dp10903
sI10720
(dp10904
sI10721
(dp10905
sI10722
(dp10906
sI10723
(dp10907
sI10724
(dp10908
sI10725
(dp10909
sI10726
(dp10910
sI10727
(dp10911
sI10728
(dp10912
sI10729
(dp10913
sI10730
(dp10914
sI10731
(dp10915
sI10732
(dp10916
sI10733
(dp10917
sI10734
(dp10918
sI10735
(dp10919
sI10736
(dp10920
sI10737
(dp10921
sI10738
(dp10922
sI10739
(dp10923
sI10740
(dp10924
sI10741
(dp10925
sI10742
(dp10926
sI10743
(dp10927
sI10744
(dp10928
sI10745
(dp10929
sI10746
(dp10930
sI10747
(dp10931
sI10748
(dp10932
sI10749
(dp10933
sI10750
(dp10934
sI10751
(dp10935
sI10752
(dp10936
sI10753
(dp10937
sI10754
(dp10938
sI10755
(dp10939
sI10756
(dp10940
sI10757
(dp10941
sI10758
(dp10942
sI10759
(dp10943
sI10760
(dp10944
sI10761
(dp10945
sI10762
(dp10946
sI10763
(dp10947
sI10764
(dp10948
sI10765
(dp10949
sI10766
(dp10950
sI10767
(dp10951
sI10768
(dp10952
sI10769
(dp10953
sI10770
(dp10954
sI10771
(dp10955
sI10772
(dp10956
sI10773
(dp10957
sI10774
(dp10958
sI10775
(dp10959
sI10776
(dp10960
sI10777
(dp10961
sI10778
(dp10962
sI10779
(dp10963
sI10780
(dp10964
sI10781
(dp10965
sI10782
(dp10966
sI10783
(dp10967
sI10784
(dp10968
sI10785
(dp10969
sI10786
(dp10970
sI10787
(dp10971
sI10788
(dp10972
sI10789
(dp10973
sI10790
(dp10974
sI10791
(dp10975
sI10792
(dp10976
sI10793
(dp10977
sI10794
(dp10978
sI10795
(dp10979
sI10796
(dp10980
sI10797
(dp10981
sI10798
(dp10982
sI10799
(dp10983
sI10800
(dp10984
s.